
led_blinking_dynamic.elf:     file format elf32-littlearm

Sections:
Idx Name          Size      VMA       LMA       File off  Algn
  0 .isr_vector   00000188  08000000  08000000  00001000  2**0
                  CONTENTS, ALLOC, LOAD, READONLY, DATA
  1 .text         00000538  08000188  08000188  00001188  2**2
                  CONTENTS, ALLOC, LOAD, READONLY, CODE
  2 .rodata       00000000  080006c0  080006c0  00002050  2**0
                  CONTENTS, ALLOC, LOAD, DATA
  3 .ARM.extab    00000000  080006c0  080006c0  00002050  2**0
                  CONTENTS, READONLY
  4 .ARM          00000000  080006c0  080006c0  00002050  2**0
                  CONTENTS, READONLY
  5 .preinit_array 00000000  080006c0  080006c0  00002050  2**0
                  CONTENTS, ALLOC, LOAD, DATA
  6 .init_array   00000004  080006c0  080006c0  000016c0  2**2
                  CONTENTS, ALLOC, LOAD, READONLY, DATA
  7 .fini_array   00000004  080006c4  080006c4  000016c4  2**2
                  CONTENTS, ALLOC, LOAD, READONLY, DATA
  8 .data         00000050  20000000  080006c8  00002000  2**2
                  CONTENTS, ALLOC, LOAD, DATA
  9 .ccmram       00000000  10000000  10000000  00002050  2**0
                  CONTENTS
 10 .bss          0000016c  20000050  20000050  00002050  2**2
                  ALLOC
 11 ._user_heap_stack 00000604  200001bc  200001bc  00002050  2**0
                  ALLOC
 12 .ARM.attributes 00000030  00000000  00000000  00002050  2**0
                  CONTENTS, READONLY
 13 .debug_info   00000e12  00000000  00000000  00002080  2**0
                  CONTENTS, READONLY, DEBUGGING, OCTETS
 14 .debug_abbrev 000004d0  00000000  00000000  00002e92  2**0
                  CONTENTS, READONLY, DEBUGGING, OCTETS
 15 .debug_aranges 00000130  00000000  00000000  00003368  2**3
                  CONTENTS, READONLY, DEBUGGING, OCTETS
 16 .debug_rnglists 000000d0  00000000  00000000  00003498  2**0
                  CONTENTS, READONLY, DEBUGGING, OCTETS
 17 .debug_macro  00017716  00000000  00000000  00003568  2**0
                  CONTENTS, READONLY, DEBUGGING, OCTETS
 18 .debug_line   00001307  00000000  00000000  0001ac7e  2**0
                  CONTENTS, READONLY, DEBUGGING, OCTETS
 19 .debug_str    00079729  00000000  00000000  0001bf85  2**0
                  CONTENTS, READONLY, DEBUGGING, OCTETS
 20 .comment      00000043  00000000  00000000  000956ae  2**0
                  CONTENTS, READONLY
 21 .debug_frame  00000860  00000000  00000000  000956f4  2**2
                  CONTENTS, READONLY, DEBUGGING, OCTETS
 22 .debug_line_str 00000066  00000000  00000000  00095f54  2**0
                  CONTENTS, READONLY, DEBUGGING, OCTETS

Disassembly of section .text:

08000188 <__do_global_dtors_aux>:
 8000188:	b510      	push	{r4, lr}
 800018a:	4c05      	ldr	r4, [pc, #20]	@ (80001a0 <__do_global_dtors_aux+0x18>)
 800018c:	7823      	ldrb	r3, [r4, #0]
 800018e:	b933      	cbnz	r3, 800019e <__do_global_dtors_aux+0x16>
 8000190:	4b04      	ldr	r3, [pc, #16]	@ (80001a4 <__do_global_dtors_aux+0x1c>)
 8000192:	b113      	cbz	r3, 800019a <__do_global_dtors_aux+0x12>
 8000194:	4804      	ldr	r0, [pc, #16]	@ (80001a8 <__do_global_dtors_aux+0x20>)
 8000196:	f3af 8000 	nop.w
 800019a:	2301      	movs	r3, #1
 800019c:	7023      	strb	r3, [r4, #0]
 800019e:	bd10      	pop	{r4, pc}
 80001a0:	20000050 	.word	0x20000050
 80001a4:	00000000 	.word	0x00000000
 80001a8:	080006a8 	.word	0x080006a8

080001ac <frame_dummy>:
 80001ac:	b508      	push	{r3, lr}
 80001ae:	4b03      	ldr	r3, [pc, #12]	@ (80001bc <frame_dummy+0x10>)
 80001b0:	b11b      	cbz	r3, 80001ba <frame_dummy+0xe>
 80001b2:	4903      	ldr	r1, [pc, #12]	@ (80001c0 <frame_dummy+0x14>)
 80001b4:	4803      	ldr	r0, [pc, #12]	@ (80001c4 <frame_dummy+0x18>)
 80001b6:	f3af 8000 	nop.w
 80001ba:	bd08      	pop	{r3, pc}
 80001bc:	00000000 	.word	0x00000000
 80001c0:	20000054 	.word	0x20000054
 80001c4:	080006a8 	.word	0x080006a8

080001c8 <_ZN3LEDC1EP12GPIO_TypeDefh>:
#include"STM32F405xx.h"
class LED{
public:
	GPIO_TypeDef *pgpio;
	uint8_t pin;
	LED(GPIO_TypeDef* port,uint8_t p){
 80001c8:	b480      	push	{r7}
 80001ca:	b085      	sub	sp, #20
 80001cc:	af00      	add	r7, sp, #0
 80001ce:	60f8      	str	r0, [r7, #12]
 80001d0:	60b9      	str	r1, [r7, #8]
 80001d2:	4613      	mov	r3, r2
 80001d4:	71fb      	strb	r3, [r7, #7]
		pgpio=port;
 80001d6:	68fb      	ldr	r3, [r7, #12]
 80001d8:	68ba      	ldr	r2, [r7, #8]
 80001da:	601a      	str	r2, [r3, #0]
		pin=p;
 80001dc:	68fb      	ldr	r3, [r7, #12]
 80001de:	79fa      	ldrb	r2, [r7, #7]
 80001e0:	711a      	strb	r2, [r3, #4]
		RCC->AHB1ENR|=(1U<<3);
 80001e2:	4b13      	ldr	r3, [pc, #76]	@ (8000230 <_ZN3LEDC1EP12GPIO_TypeDefh+0x68>)
 80001e4:	6b1b      	ldr	r3, [r3, #48]	@ 0x30
 80001e6:	4a12      	ldr	r2, [pc, #72]	@ (8000230 <_ZN3LEDC1EP12GPIO_TypeDefh+0x68>)
 80001e8:	f043 0308 	orr.w	r3, r3, #8
 80001ec:	6313      	str	r3, [r2, #48]	@ 0x30
		pgpio->MODER&=~(3U<<(pin*2));
 80001ee:	68fb      	ldr	r3, [r7, #12]
 80001f0:	681b      	ldr	r3, [r3, #0]
 80001f2:	6819      	ldr	r1, [r3, #0]
 80001f4:	68fb      	ldr	r3, [r7, #12]
 80001f6:	791b      	ldrb	r3, [r3, #4]
 80001f8:	005b      	lsls	r3, r3, #1
 80001fa:	2203      	movs	r2, #3
 80001fc:	fa02 f303 	lsl.w	r3, r2, r3
 8000200:	43da      	mvns	r2, r3
 8000202:	68fb      	ldr	r3, [r7, #12]
 8000204:	681b      	ldr	r3, [r3, #0]
 8000206:	400a      	ands	r2, r1
 8000208:	601a      	str	r2, [r3, #0]
		pgpio->MODER|=(1U<<(pin*2));
 800020a:	68fb      	ldr	r3, [r7, #12]
 800020c:	681b      	ldr	r3, [r3, #0]
 800020e:	6819      	ldr	r1, [r3, #0]
 8000210:	68fb      	ldr	r3, [r7, #12]
 8000212:	791b      	ldrb	r3, [r3, #4]
 8000214:	005b      	lsls	r3, r3, #1
 8000216:	2201      	movs	r2, #1
 8000218:	409a      	lsls	r2, r3
 800021a:	68fb      	ldr	r3, [r7, #12]
 800021c:	681b      	ldr	r3, [r3, #0]
 800021e:	430a      	orrs	r2, r1
 8000220:	601a      	str	r2, [r3, #0]
	}
 8000222:	68fb      	ldr	r3, [r7, #12]
 8000224:	4618      	mov	r0, r3
 8000226:	3714      	adds	r7, #20
 8000228:	46bd      	mov	sp, r7
 800022a:	f85d 7b04 	ldr.w	r7, [sp], #4
 800022e:	4770      	bx	lr
 8000230:	40023800 	.word	0x40023800

08000234 <_ZN3LED6led_onEv>:
	void led_on(){
 8000234:	b480      	push	{r7}
 8000236:	b083      	sub	sp, #12
 8000238:	af00      	add	r7, sp, #0
 800023a:	6078      	str	r0, [r7, #4]
		pgpio->BSRR=(1<<pin);
 800023c:	687b      	ldr	r3, [r7, #4]
 800023e:	791b      	ldrb	r3, [r3, #4]
 8000240:	461a      	mov	r2, r3
 8000242:	2301      	movs	r3, #1
 8000244:	fa03 f202 	lsl.w	r2, r3, r2
 8000248:	687b      	ldr	r3, [r7, #4]
 800024a:	681b      	ldr	r3, [r3, #0]
 800024c:	619a      	str	r2, [r3, #24]
	}
 800024e:	bf00      	nop
 8000250:	370c      	adds	r7, #12
 8000252:	46bd      	mov	sp, r7
 8000254:	f85d 7b04 	ldr.w	r7, [sp], #4
 8000258:	4770      	bx	lr

0800025a <_ZN3LED7led_offEv>:
	void led_off(){
 800025a:	b480      	push	{r7}
 800025c:	b083      	sub	sp, #12
 800025e:	af00      	add	r7, sp, #0
 8000260:	6078      	str	r0, [r7, #4]
		pgpio->BSRR=(1<<pin+16);
 8000262:	687b      	ldr	r3, [r7, #4]
 8000264:	791b      	ldrb	r3, [r3, #4]
 8000266:	3310      	adds	r3, #16
 8000268:	2201      	movs	r2, #1
 800026a:	409a      	lsls	r2, r3
 800026c:	687b      	ldr	r3, [r7, #4]
 800026e:	681b      	ldr	r3, [r3, #0]
 8000270:	619a      	str	r2, [r3, #24]
	}
 8000272:	bf00      	nop
 8000274:	370c      	adds	r7, #12
 8000276:	46bd      	mov	sp, r7
 8000278:	f85d 7b04 	ldr.w	r7, [sp], #4
 800027c:	4770      	bx	lr
	...

08000280 <_Z5delayv>:
	~LED(){
		pgpio->MODER&=~(3<<(pin*2));
	}

};
void delay(){
 8000280:	b480      	push	{r7}
 8000282:	b083      	sub	sp, #12
 8000284:	af00      	add	r7, sp, #0
	for(volatile uint32_t i=0;i<1000000;i++);
 8000286:	2300      	movs	r3, #0
 8000288:	607b      	str	r3, [r7, #4]
 800028a:	e002      	b.n	8000292 <_Z5delayv+0x12>
 800028c:	687b      	ldr	r3, [r7, #4]
 800028e:	3301      	adds	r3, #1
 8000290:	607b      	str	r3, [r7, #4]
 8000292:	687b      	ldr	r3, [r7, #4]
 8000294:	4a07      	ldr	r2, [pc, #28]	@ (80002b4 <_Z5delayv+0x34>)
 8000296:	4293      	cmp	r3, r2
 8000298:	bf94      	ite	ls
 800029a:	2301      	movls	r3, #1
 800029c:	2300      	movhi	r3, #0
 800029e:	b2db      	uxtb	r3, r3
 80002a0:	2b00      	cmp	r3, #0
 80002a2:	d1f3      	bne.n	800028c <_Z5delayv+0xc>
}
 80002a4:	bf00      	nop
 80002a6:	bf00      	nop
 80002a8:	370c      	adds	r7, #12
 80002aa:	46bd      	mov	sp, r7
 80002ac:	f85d 7b04 	ldr.w	r7, [sp], #4
 80002b0:	4770      	bx	lr
 80002b2:	bf00      	nop
 80002b4:	000f423f 	.word	0x000f423f

080002b8 <main>:
int main(void)
{
 80002b8:	b590      	push	{r4, r7, lr}
 80002ba:	b083      	sub	sp, #12
 80002bc:	af00      	add	r7, sp, #0
    LED *green=new LED(GPIOD,12);
 80002be:	2008      	movs	r0, #8
 80002c0:	f000 f89b 	bl	80003fa <_Znwj>
 80002c4:	4603      	mov	r3, r0
 80002c6:	461c      	mov	r4, r3
 80002c8:	220c      	movs	r2, #12
 80002ca:	4909      	ldr	r1, [pc, #36]	@ (80002f0 <main+0x38>)
 80002cc:	4620      	mov	r0, r4
 80002ce:	f7ff ff7b 	bl	80001c8 <_ZN3LEDC1EP12GPIO_TypeDefh>
 80002d2:	607c      	str	r4, [r7, #4]
    green->led_on();
 80002d4:	6878      	ldr	r0, [r7, #4]
 80002d6:	f7ff ffad 	bl	8000234 <_ZN3LED6led_onEv>
    delay();
 80002da:	f7ff ffd1 	bl	8000280 <_Z5delayv>
    green->led_off();
 80002de:	6878      	ldr	r0, [r7, #4]
 80002e0:	f7ff ffbb 	bl	800025a <_ZN3LED7led_offEv>
}
 80002e4:	2300      	movs	r3, #0
 80002e6:	4618      	mov	r0, r3
 80002e8:	370c      	adds	r7, #12
 80002ea:	46bd      	mov	sp, r7
 80002ec:	bd90      	pop	{r4, r7, pc}
 80002ee:	bf00      	nop
 80002f0:	40020c00 	.word	0x40020c00

080002f4 <_getpid>:
void initialise_monitor_handles()
{
}

int _getpid(void)
{
 80002f4:	b480      	push	{r7}
 80002f6:	af00      	add	r7, sp, #0
  return 1;
 80002f8:	2301      	movs	r3, #1
}
 80002fa:	4618      	mov	r0, r3
 80002fc:	46bd      	mov	sp, r7
 80002fe:	f85d 7b04 	ldr.w	r7, [sp], #4
 8000302:	4770      	bx	lr

08000304 <_kill>:

int _kill(int pid, int sig)
{
 8000304:	b580      	push	{r7, lr}
 8000306:	b082      	sub	sp, #8
 8000308:	af00      	add	r7, sp, #0
 800030a:	6078      	str	r0, [r7, #4]
 800030c:	6039      	str	r1, [r7, #0]
  (void)pid;
  (void)sig;
  errno = EINVAL;
 800030e:	f000 f99f 	bl	8000650 <__errno>
 8000312:	4603      	mov	r3, r0
 8000314:	2216      	movs	r2, #22
 8000316:	601a      	str	r2, [r3, #0]
  return -1;
 8000318:	f04f 33ff 	mov.w	r3, #4294967295	@ 0xffffffff
}
 800031c:	4618      	mov	r0, r3
 800031e:	3708      	adds	r7, #8
 8000320:	46bd      	mov	sp, r7
 8000322:	bd80      	pop	{r7, pc}

08000324 <_exit>:

void _exit (int status)
{
 8000324:	b580      	push	{r7, lr}
 8000326:	b082      	sub	sp, #8
 8000328:	af00      	add	r7, sp, #0
 800032a:	6078      	str	r0, [r7, #4]
  _kill(status, -1);
 800032c:	f04f 31ff 	mov.w	r1, #4294967295	@ 0xffffffff
 8000330:	6878      	ldr	r0, [r7, #4]
 8000332:	f7ff ffe7 	bl	8000304 <_kill>
  while (1) {}    /* Make sure we hang here */
 8000336:	bf00      	nop
 8000338:	e7fd      	b.n	8000336 <_exit+0x12>
	...

0800033c <_sbrk>:
 *
 * @param incr Memory size
 * @return Pointer to allocated memory
 */
void *_sbrk(ptrdiff_t incr)
{
 800033c:	b580      	push	{r7, lr}
 800033e:	b086      	sub	sp, #24
 8000340:	af00      	add	r7, sp, #0
 8000342:	6078      	str	r0, [r7, #4]
  extern uint8_t _end; /* Symbol defined in the linker script */
  extern uint8_t _estack; /* Symbol defined in the linker script */
  extern uint32_t _Min_Stack_Size; /* Symbol defined in the linker script */
  const uint32_t stack_limit = (uint32_t)&_estack - (uint32_t)&_Min_Stack_Size;
 8000344:	4a14      	ldr	r2, [pc, #80]	@ (8000398 <_sbrk+0x5c>)
 8000346:	4b15      	ldr	r3, [pc, #84]	@ (800039c <_sbrk+0x60>)
 8000348:	1ad3      	subs	r3, r2, r3
 800034a:	617b      	str	r3, [r7, #20]
  const uint8_t *max_heap = (uint8_t *)stack_limit;
 800034c:	697b      	ldr	r3, [r7, #20]
 800034e:	613b      	str	r3, [r7, #16]
  uint8_t *prev_heap_end;

  /* Initialize heap end at first call */
  if (NULL == __sbrk_heap_end)
 8000350:	4b13      	ldr	r3, [pc, #76]	@ (80003a0 <_sbrk+0x64>)
 8000352:	681b      	ldr	r3, [r3, #0]
 8000354:	2b00      	cmp	r3, #0
 8000356:	d102      	bne.n	800035e <_sbrk+0x22>
  {
    __sbrk_heap_end = &_end;
 8000358:	4b11      	ldr	r3, [pc, #68]	@ (80003a0 <_sbrk+0x64>)
 800035a:	4a12      	ldr	r2, [pc, #72]	@ (80003a4 <_sbrk+0x68>)
 800035c:	601a      	str	r2, [r3, #0]
  }

  /* Protect heap from growing into the reserved MSP stack */
  if (__sbrk_heap_end + incr > max_heap)
 800035e:	4b10      	ldr	r3, [pc, #64]	@ (80003a0 <_sbrk+0x64>)
 8000360:	681a      	ldr	r2, [r3, #0]
 8000362:	687b      	ldr	r3, [r7, #4]
 8000364:	4413      	add	r3, r2
 8000366:	693a      	ldr	r2, [r7, #16]
 8000368:	429a      	cmp	r2, r3
 800036a:	d207      	bcs.n	800037c <_sbrk+0x40>
  {
    errno = ENOMEM;
 800036c:	f000 f970 	bl	8000650 <__errno>
 8000370:	4603      	mov	r3, r0
 8000372:	220c      	movs	r2, #12
 8000374:	601a      	str	r2, [r3, #0]
    return (void *)-1;
 8000376:	f04f 33ff 	mov.w	r3, #4294967295	@ 0xffffffff
 800037a:	e009      	b.n	8000390 <_sbrk+0x54>
  }

  prev_heap_end = __sbrk_heap_end;
 800037c:	4b08      	ldr	r3, [pc, #32]	@ (80003a0 <_sbrk+0x64>)
 800037e:	681b      	ldr	r3, [r3, #0]
 8000380:	60fb      	str	r3, [r7, #12]
  __sbrk_heap_end += incr;
 8000382:	4b07      	ldr	r3, [pc, #28]	@ (80003a0 <_sbrk+0x64>)
 8000384:	681a      	ldr	r2, [r3, #0]
 8000386:	687b      	ldr	r3, [r7, #4]
 8000388:	4413      	add	r3, r2
 800038a:	4a05      	ldr	r2, [pc, #20]	@ (80003a0 <_sbrk+0x64>)
 800038c:	6013      	str	r3, [r2, #0]

  return (void *)prev_heap_end;
 800038e:	68fb      	ldr	r3, [r7, #12]
}
 8000390:	4618      	mov	r0, r3
 8000392:	3718      	adds	r7, #24
 8000394:	46bd      	mov	sp, r7
 8000396:	bd80      	pop	{r7, pc}
 8000398:	20020000 	.word	0x20020000
 800039c:	00000400 	.word	0x00000400
 80003a0:	2000006c 	.word	0x2000006c
 80003a4:	200001c0 	.word	0x200001c0

080003a8 <Reset_Handler>:

  .section .text.Reset_Handler
  .weak Reset_Handler
  .type Reset_Handler, %function
Reset_Handler:
  ldr   r0, =_estack
 80003a8:	480d      	ldr	r0, [pc, #52]	@ (80003e0 <LoopForever+0x2>)
  mov   sp, r0          /* set stack pointer */
 80003aa:	4685      	mov	sp, r0
/* Call the clock system initialization function.*/
  bl  SystemInit
 80003ac:	f3af 8000 	nop.w

/* Copy the data segment initializers from flash to SRAM */
  ldr r0, =_sdata
 80003b0:	480c      	ldr	r0, [pc, #48]	@ (80003e4 <LoopForever+0x6>)
  ldr r1, =_edata
 80003b2:	490d      	ldr	r1, [pc, #52]	@ (80003e8 <LoopForever+0xa>)
  ldr r2, =_sidata
 80003b4:	4a0d      	ldr	r2, [pc, #52]	@ (80003ec <LoopForever+0xe>)
  movs r3, #0
 80003b6:	2300      	movs	r3, #0
  b LoopCopyDataInit
 80003b8:	e002      	b.n	80003c0 <LoopCopyDataInit>

080003ba <CopyDataInit>:

CopyDataInit:
  ldr r4, [r2, r3]
 80003ba:	58d4      	ldr	r4, [r2, r3]
  str r4, [r0, r3]
 80003bc:	50c4      	str	r4, [r0, r3]
  adds r3, r3, #4
 80003be:	3304      	adds	r3, #4

080003c0 <LoopCopyDataInit>:

LoopCopyDataInit:
  adds r4, r0, r3
 80003c0:	18c4      	adds	r4, r0, r3
  cmp r4, r1
 80003c2:	428c      	cmp	r4, r1
  bcc CopyDataInit
 80003c4:	d3f9      	bcc.n	80003ba <CopyDataInit>

/* Zero fill the bss segment. */
  ldr r2, =_sbss
 80003c6:	4a0a      	ldr	r2, [pc, #40]	@ (80003f0 <LoopForever+0x12>)
  ldr r4, =_ebss
 80003c8:	4c0a      	ldr	r4, [pc, #40]	@ (80003f4 <LoopForever+0x16>)
  movs r3, #0
 80003ca:	2300      	movs	r3, #0
  b LoopFillZerobss
 80003cc:	e001      	b.n	80003d2 <LoopFillZerobss>

080003ce <FillZerobss>:

FillZerobss:
  str  r3, [r2]
 80003ce:	6013      	str	r3, [r2, #0]
  adds r2, r2, #4
 80003d0:	3204      	adds	r2, #4

080003d2 <LoopFillZerobss>:

LoopFillZerobss:
  cmp r2, r4
 80003d2:	42a2      	cmp	r2, r4
  bcc FillZerobss
 80003d4:	d3fb      	bcc.n	80003ce <FillZerobss>


/* Call static constructors */
  bl __libc_init_array
 80003d6:	f000 f941 	bl	800065c <__libc_init_array>
/* Call the application's entry point.*/

  bl main
 80003da:	f7ff ff6d 	bl	80002b8 <main>

080003de <LoopForever>:

LoopForever:
  b LoopForever
 80003de:	e7fe      	b.n	80003de <LoopForever>
  ldr   r0, =_estack
 80003e0:	20020000 	.word	0x20020000
  ldr r0, =_sdata
 80003e4:	20000000 	.word	0x20000000
  ldr r1, =_edata
 80003e8:	20000050 	.word	0x20000050
  ldr r2, =_sidata
 80003ec:	080006c8 	.word	0x080006c8
  ldr r2, =_sbss
 80003f0:	20000050 	.word	0x20000050
  ldr r4, =_ebss
 80003f4:	200001bc 	.word	0x200001bc

080003f8 <ADC_IRQHandler>:
 * @retval : None
*/
  .section .text.Default_Handler,"ax",%progbits
Default_Handler:
Infinite_Loop:
  b Infinite_Loop
 80003f8:	e7fe      	b.n	80003f8 <ADC_IRQHandler>

080003fa <_Znwj>:
 80003fa:	2801      	cmp	r0, #1
 80003fc:	bf38      	it	cc
 80003fe:	2001      	movcc	r0, #1
 8000400:	b510      	push	{r4, lr}
 8000402:	4604      	mov	r4, r0
 8000404:	4620      	mov	r0, r4
 8000406:	f000 f819 	bl	800043c <malloc>
 800040a:	b100      	cbz	r0, 800040e <_Znwj+0x14>
 800040c:	bd10      	pop	{r4, pc}
 800040e:	f000 f805 	bl	800041c <_ZSt15get_new_handlerv>
 8000412:	b908      	cbnz	r0, 8000418 <_Znwj+0x1e>
 8000414:	f000 f80a 	bl	800042c <abort>
 8000418:	4780      	blx	r0
 800041a:	e7f3      	b.n	8000404 <_Znwj+0xa>

0800041c <_ZSt15get_new_handlerv>:
 800041c:	4b02      	ldr	r3, [pc, #8]	@ (8000428 <_ZSt15get_new_handlerv+0xc>)
 800041e:	6818      	ldr	r0, [r3, #0]
 8000420:	f3bf 8f5b 	dmb	ish
 8000424:	4770      	bx	lr
 8000426:	bf00      	nop
 8000428:	20000070 	.word	0x20000070

0800042c <abort>:
 800042c:	b508      	push	{r3, lr}
 800042e:	2006      	movs	r0, #6
 8000430:	f000 f8e2 	bl	80005f8 <raise>
 8000434:	2001      	movs	r0, #1
 8000436:	f7ff ff75 	bl	8000324 <_exit>
	...

0800043c <malloc>:
 800043c:	4b02      	ldr	r3, [pc, #8]	@ (8000448 <malloc+0xc>)
 800043e:	4601      	mov	r1, r0
 8000440:	6818      	ldr	r0, [r3, #0]
 8000442:	f000 b825 	b.w	8000490 <_malloc_r>
 8000446:	bf00      	nop
 8000448:	20000000 	.word	0x20000000

0800044c <sbrk_aligned>:
 800044c:	b570      	push	{r4, r5, r6, lr}
 800044e:	4e0f      	ldr	r6, [pc, #60]	@ (800048c <sbrk_aligned+0x40>)
 8000450:	460c      	mov	r4, r1
 8000452:	6831      	ldr	r1, [r6, #0]
 8000454:	4605      	mov	r5, r0
 8000456:	b911      	cbnz	r1, 800045e <sbrk_aligned+0x12>
 8000458:	f000 f8ea 	bl	8000630 <_sbrk_r>
 800045c:	6030      	str	r0, [r6, #0]
 800045e:	4621      	mov	r1, r4
 8000460:	4628      	mov	r0, r5
 8000462:	f000 f8e5 	bl	8000630 <_sbrk_r>
 8000466:	1c43      	adds	r3, r0, #1
 8000468:	d103      	bne.n	8000472 <sbrk_aligned+0x26>
 800046a:	f04f 34ff 	mov.w	r4, #4294967295	@ 0xffffffff
 800046e:	4620      	mov	r0, r4
 8000470:	bd70      	pop	{r4, r5, r6, pc}
 8000472:	1cc4      	adds	r4, r0, #3
 8000474:	f024 0403 	bic.w	r4, r4, #3
 8000478:	42a0      	cmp	r0, r4
 800047a:	d0f8      	beq.n	800046e <sbrk_aligned+0x22>
 800047c:	1a21      	subs	r1, r4, r0
 800047e:	4628      	mov	r0, r5
 8000480:	f000 f8d6 	bl	8000630 <_sbrk_r>
 8000484:	3001      	adds	r0, #1
 8000486:	d1f2      	bne.n	800046e <sbrk_aligned+0x22>
 8000488:	e7ef      	b.n	800046a <sbrk_aligned+0x1e>
 800048a:	bf00      	nop
 800048c:	20000074 	.word	0x20000074

08000490 <_malloc_r>:
 8000490:	e92d 43f8 	stmdb	sp!, {r3, r4, r5, r6, r7, r8, r9, lr}
 8000494:	1ccd      	adds	r5, r1, #3
 8000496:	f025 0503 	bic.w	r5, r5, #3
 800049a:	3508      	adds	r5, #8
 800049c:	2d0c      	cmp	r5, #12
 800049e:	bf38      	it	cc
 80004a0:	250c      	movcc	r5, #12
 80004a2:	2d00      	cmp	r5, #0
 80004a4:	4606      	mov	r6, r0
 80004a6:	db01      	blt.n	80004ac <_malloc_r+0x1c>
 80004a8:	42a9      	cmp	r1, r5
 80004aa:	d904      	bls.n	80004b6 <_malloc_r+0x26>
 80004ac:	230c      	movs	r3, #12
 80004ae:	6033      	str	r3, [r6, #0]
 80004b0:	2000      	movs	r0, #0
 80004b2:	e8bd 83f8 	ldmia.w	sp!, {r3, r4, r5, r6, r7, r8, r9, pc}
 80004b6:	f8df 80d4 	ldr.w	r8, [pc, #212]	@ 800058c <_malloc_r+0xfc>
 80004ba:	f000 f869 	bl	8000590 <__malloc_lock>
 80004be:	f8d8 3000 	ldr.w	r3, [r8]
 80004c2:	461c      	mov	r4, r3
 80004c4:	bb44      	cbnz	r4, 8000518 <_malloc_r+0x88>
 80004c6:	4629      	mov	r1, r5
 80004c8:	4630      	mov	r0, r6
 80004ca:	f7ff ffbf 	bl	800044c <sbrk_aligned>
 80004ce:	1c43      	adds	r3, r0, #1
 80004d0:	4604      	mov	r4, r0
 80004d2:	d158      	bne.n	8000586 <_malloc_r+0xf6>
 80004d4:	f8d8 4000 	ldr.w	r4, [r8]
 80004d8:	4627      	mov	r7, r4
 80004da:	2f00      	cmp	r7, #0
 80004dc:	d143      	bne.n	8000566 <_malloc_r+0xd6>
 80004de:	2c00      	cmp	r4, #0
 80004e0:	d04b      	beq.n	800057a <_malloc_r+0xea>
 80004e2:	6823      	ldr	r3, [r4, #0]
 80004e4:	4639      	mov	r1, r7
 80004e6:	4630      	mov	r0, r6
 80004e8:	eb04 0903 	add.w	r9, r4, r3
 80004ec:	f000 f8a0 	bl	8000630 <_sbrk_r>
 80004f0:	4581      	cmp	r9, r0
 80004f2:	d142      	bne.n	800057a <_malloc_r+0xea>
 80004f4:	6821      	ldr	r1, [r4, #0]
 80004f6:	1a6d      	subs	r5, r5, r1
 80004f8:	4629      	mov	r1, r5
 80004fa:	4630      	mov	r0, r6
 80004fc:	f7ff ffa6 	bl	800044c <sbrk_aligned>
 8000500:	3001      	adds	r0, #1
 8000502:	d03a      	beq.n	800057a <_malloc_r+0xea>
 8000504:	6823      	ldr	r3, [r4, #0]
 8000506:	442b      	add	r3, r5
 8000508:	6023      	str	r3, [r4, #0]
 800050a:	f8d8 3000 	ldr.w	r3, [r8]
 800050e:	685a      	ldr	r2, [r3, #4]
 8000510:	bb62      	cbnz	r2, 800056c <_malloc_r+0xdc>
 8000512:	f8c8 7000 	str.w	r7, [r8]
 8000516:	e00f      	b.n	8000538 <_malloc_r+0xa8>
 8000518:	6822      	ldr	r2, [r4, #0]
 800051a:	1b52      	subs	r2, r2, r5
 800051c:	d420      	bmi.n	8000560 <_malloc_r+0xd0>
 800051e:	2a0b      	cmp	r2, #11
 8000520:	d917      	bls.n	8000552 <_malloc_r+0xc2>
 8000522:	1961      	adds	r1, r4, r5
 8000524:	42a3      	cmp	r3, r4
 8000526:	6025      	str	r5, [r4, #0]
 8000528:	bf18      	it	ne
 800052a:	6059      	strne	r1, [r3, #4]
 800052c:	6863      	ldr	r3, [r4, #4]
 800052e:	bf08      	it	eq
 8000530:	f8c8 1000 	streq.w	r1, [r8]
 8000534:	5162      	str	r2, [r4, r5]
 8000536:	604b      	str	r3, [r1, #4]
 8000538:	4630      	mov	r0, r6
 800053a:	f000 f82f 	bl	800059c <__malloc_unlock>
 800053e:	f104 000b 	add.w	r0, r4, #11
 8000542:	1d23      	adds	r3, r4, #4
 8000544:	f020 0007 	bic.w	r0, r0, #7
 8000548:	1ac2      	subs	r2, r0, r3
 800054a:	bf1c      	itt	ne
 800054c:	1a1b      	subne	r3, r3, r0
 800054e:	50a3      	strne	r3, [r4, r2]
 8000550:	e7af      	b.n	80004b2 <_malloc_r+0x22>
 8000552:	6862      	ldr	r2, [r4, #4]
 8000554:	42a3      	cmp	r3, r4
 8000556:	bf0c      	ite	eq
 8000558:	f8c8 2000 	streq.w	r2, [r8]
 800055c:	605a      	strne	r2, [r3, #4]
 800055e:	e7eb      	b.n	8000538 <_malloc_r+0xa8>
 8000560:	4623      	mov	r3, r4
 8000562:	6864      	ldr	r4, [r4, #4]
 8000564:	e7ae      	b.n	80004c4 <_malloc_r+0x34>
 8000566:	463c      	mov	r4, r7
 8000568:	687f      	ldr	r7, [r7, #4]
 800056a:	e7b6      	b.n	80004da <_malloc_r+0x4a>
 800056c:	461a      	mov	r2, r3
 800056e:	685b      	ldr	r3, [r3, #4]
 8000570:	42a3      	cmp	r3, r4
 8000572:	d1fb      	bne.n	800056c <_malloc_r+0xdc>
 8000574:	2300      	movs	r3, #0
 8000576:	6053      	str	r3, [r2, #4]
 8000578:	e7de      	b.n	8000538 <_malloc_r+0xa8>
 800057a:	230c      	movs	r3, #12
 800057c:	6033      	str	r3, [r6, #0]
 800057e:	4630      	mov	r0, r6
 8000580:	f000 f80c 	bl	800059c <__malloc_unlock>
 8000584:	e794      	b.n	80004b0 <_malloc_r+0x20>
 8000586:	6005      	str	r5, [r0, #0]
 8000588:	e7d6      	b.n	8000538 <_malloc_r+0xa8>
 800058a:	bf00      	nop
 800058c:	20000078 	.word	0x20000078

08000590 <__malloc_lock>:
 8000590:	4801      	ldr	r0, [pc, #4]	@ (8000598 <__malloc_lock+0x8>)
 8000592:	f000 b887 	b.w	80006a4 <__retarget_lock_acquire_recursive>
 8000596:	bf00      	nop
 8000598:	200001b8 	.word	0x200001b8

0800059c <__malloc_unlock>:
 800059c:	4801      	ldr	r0, [pc, #4]	@ (80005a4 <__malloc_unlock+0x8>)
 800059e:	f000 b882 	b.w	80006a6 <__retarget_lock_release_recursive>
 80005a2:	bf00      	nop
 80005a4:	200001b8 	.word	0x200001b8

080005a8 <_raise_r>:
 80005a8:	291f      	cmp	r1, #31
 80005aa:	b538      	push	{r3, r4, r5, lr}
 80005ac:	4605      	mov	r5, r0
 80005ae:	460c      	mov	r4, r1
 80005b0:	d904      	bls.n	80005bc <_raise_r+0x14>
 80005b2:	2316      	movs	r3, #22
 80005b4:	6003      	str	r3, [r0, #0]
 80005b6:	f04f 30ff 	mov.w	r0, #4294967295	@ 0xffffffff
 80005ba:	bd38      	pop	{r3, r4, r5, pc}
 80005bc:	6bc2      	ldr	r2, [r0, #60]	@ 0x3c
 80005be:	b112      	cbz	r2, 80005c6 <_raise_r+0x1e>
 80005c0:	f852 3021 	ldr.w	r3, [r2, r1, lsl #2]
 80005c4:	b94b      	cbnz	r3, 80005da <_raise_r+0x32>
 80005c6:	4628      	mov	r0, r5
 80005c8:	f000 f830 	bl	800062c <_getpid_r>
 80005cc:	4622      	mov	r2, r4
 80005ce:	4601      	mov	r1, r0
 80005d0:	4628      	mov	r0, r5
 80005d2:	e8bd 4038 	ldmia.w	sp!, {r3, r4, r5, lr}
 80005d6:	f000 b817 	b.w	8000608 <_kill_r>
 80005da:	2b01      	cmp	r3, #1
 80005dc:	d00a      	beq.n	80005f4 <_raise_r+0x4c>
 80005de:	1c59      	adds	r1, r3, #1
 80005e0:	d103      	bne.n	80005ea <_raise_r+0x42>
 80005e2:	2316      	movs	r3, #22
 80005e4:	6003      	str	r3, [r0, #0]
 80005e6:	2001      	movs	r0, #1
 80005e8:	e7e7      	b.n	80005ba <_raise_r+0x12>
 80005ea:	2100      	movs	r1, #0
 80005ec:	f842 1024 	str.w	r1, [r2, r4, lsl #2]
 80005f0:	4620      	mov	r0, r4
 80005f2:	4798      	blx	r3
 80005f4:	2000      	movs	r0, #0
 80005f6:	e7e0      	b.n	80005ba <_raise_r+0x12>

080005f8 <raise>:
 80005f8:	4b02      	ldr	r3, [pc, #8]	@ (8000604 <raise+0xc>)
 80005fa:	4601      	mov	r1, r0
 80005fc:	6818      	ldr	r0, [r3, #0]
 80005fe:	f7ff bfd3 	b.w	80005a8 <_raise_r>
 8000602:	bf00      	nop
 8000604:	20000000 	.word	0x20000000

08000608 <_kill_r>:
 8000608:	b538      	push	{r3, r4, r5, lr}
 800060a:	4d07      	ldr	r5, [pc, #28]	@ (8000628 <_kill_r+0x20>)
 800060c:	2300      	movs	r3, #0
 800060e:	4604      	mov	r4, r0
 8000610:	4608      	mov	r0, r1
 8000612:	4611      	mov	r1, r2
 8000614:	602b      	str	r3, [r5, #0]
 8000616:	f7ff fe75 	bl	8000304 <_kill>
 800061a:	1c43      	adds	r3, r0, #1
 800061c:	d102      	bne.n	8000624 <_kill_r+0x1c>
 800061e:	682b      	ldr	r3, [r5, #0]
 8000620:	b103      	cbz	r3, 8000624 <_kill_r+0x1c>
 8000622:	6023      	str	r3, [r4, #0]
 8000624:	bd38      	pop	{r3, r4, r5, pc}
 8000626:	bf00      	nop
 8000628:	200001b4 	.word	0x200001b4

0800062c <_getpid_r>:
 800062c:	f7ff be62 	b.w	80002f4 <_getpid>

08000630 <_sbrk_r>:
 8000630:	b538      	push	{r3, r4, r5, lr}
 8000632:	4d06      	ldr	r5, [pc, #24]	@ (800064c <_sbrk_r+0x1c>)
 8000634:	2300      	movs	r3, #0
 8000636:	4604      	mov	r4, r0
 8000638:	4608      	mov	r0, r1
 800063a:	602b      	str	r3, [r5, #0]
 800063c:	f7ff fe7e 	bl	800033c <_sbrk>
 8000640:	1c43      	adds	r3, r0, #1
 8000642:	d102      	bne.n	800064a <_sbrk_r+0x1a>
 8000644:	682b      	ldr	r3, [r5, #0]
 8000646:	b103      	cbz	r3, 800064a <_sbrk_r+0x1a>
 8000648:	6023      	str	r3, [r4, #0]
 800064a:	bd38      	pop	{r3, r4, r5, pc}
 800064c:	200001b4 	.word	0x200001b4

08000650 <__errno>:
 8000650:	4b01      	ldr	r3, [pc, #4]	@ (8000658 <__errno+0x8>)
 8000652:	6818      	ldr	r0, [r3, #0]
 8000654:	4770      	bx	lr
 8000656:	bf00      	nop
 8000658:	20000000 	.word	0x20000000

0800065c <__libc_init_array>:
 800065c:	b570      	push	{r4, r5, r6, lr}
 800065e:	4b0d      	ldr	r3, [pc, #52]	@ (8000694 <__libc_init_array+0x38>)
 8000660:	4d0d      	ldr	r5, [pc, #52]	@ (8000698 <__libc_init_array+0x3c>)
 8000662:	1b5b      	subs	r3, r3, r5
 8000664:	109c      	asrs	r4, r3, #2
 8000666:	2600      	movs	r6, #0
 8000668:	42a6      	cmp	r6, r4
 800066a:	d109      	bne.n	8000680 <__libc_init_array+0x24>
 800066c:	f000 f81c 	bl	80006a8 <_init>
 8000670:	4d0a      	ldr	r5, [pc, #40]	@ (800069c <__libc_init_array+0x40>)
 8000672:	4b0b      	ldr	r3, [pc, #44]	@ (80006a0 <__libc_init_array+0x44>)
 8000674:	1b5b      	subs	r3, r3, r5
 8000676:	109c      	asrs	r4, r3, #2
 8000678:	2600      	movs	r6, #0
 800067a:	42a6      	cmp	r6, r4
 800067c:	d105      	bne.n	800068a <__libc_init_array+0x2e>
 800067e:	bd70      	pop	{r4, r5, r6, pc}
 8000680:	f855 3b04 	ldr.w	r3, [r5], #4
 8000684:	4798      	blx	r3
 8000686:	3601      	adds	r6, #1
 8000688:	e7ee      	b.n	8000668 <__libc_init_array+0xc>
 800068a:	f855 3b04 	ldr.w	r3, [r5], #4
 800068e:	4798      	blx	r3
 8000690:	3601      	adds	r6, #1
 8000692:	e7f2      	b.n	800067a <__libc_init_array+0x1e>
 8000694:	080006c0 	.word	0x080006c0
 8000698:	080006c0 	.word	0x080006c0
 800069c:	080006c0 	.word	0x080006c0
 80006a0:	080006c4 	.word	0x080006c4

080006a4 <__retarget_lock_acquire_recursive>:
 80006a4:	4770      	bx	lr

080006a6 <__retarget_lock_release_recursive>:
 80006a6:	4770      	bx	lr

080006a8 <_init>:
 80006a8:	b5f8      	push	{r3, r4, r5, r6, r7, lr}
 80006aa:	bf00      	nop
 80006ac:	bcf8      	pop	{r3, r4, r5, r6, r7}
 80006ae:	bc08      	pop	{r3}
 80006b0:	469e      	mov	lr, r3
 80006b2:	4770      	bx	lr

080006b4 <_fini>:
 80006b4:	b5f8      	push	{r3, r4, r5, r6, r7, lr}
 80006b6:	bf00      	nop
 80006b8:	bcf8      	pop	{r3, r4, r5, r6, r7}
 80006ba:	bc08      	pop	{r3}
 80006bc:	469e      	mov	lr, r3
 80006be:	4770      	bx	lr
