
GPIO_complete_wrapper.elf:     file format elf32-littlearm

Sections:
Idx Name          Size      VMA       LMA       File off  Algn
  0 .isr_vector   00000188  08000000  08000000  00001000  2**0
                  CONTENTS, ALLOC, LOAD, READONLY, DATA
  1 .text         0000078c  08000188  08000188  00001188  2**2
                  CONTENTS, ALLOC, LOAD, READONLY, CODE
  2 .rodata       00000000  08000914  0800091c  0000191c  2**0
                  CONTENTS, ALLOC, LOAD, DATA
  3 .ARM.extab    00000000  08000914  08000914  0000191c  2**0
                  CONTENTS, READONLY
  4 .ARM          00000000  08000914  08000914  0000191c  2**0
                  CONTENTS, READONLY
  5 .preinit_array 00000000  08000914  0800091c  0000191c  2**0
                  CONTENTS, ALLOC, LOAD, DATA
  6 .init_array   00000004  08000914  08000914  00001914  2**2
                  CONTENTS, ALLOC, LOAD, READONLY, DATA
  7 .fini_array   00000004  08000918  08000918  00001918  2**2
                  CONTENTS, ALLOC, LOAD, READONLY, DATA
  8 .data         00000000  20000000  20000000  0000191c  2**0
                  CONTENTS, ALLOC, LOAD, DATA
  9 .ccmram       00000000  10000000  10000000  0000191c  2**0
                  CONTENTS
 10 .bss          00000024  20000000  20000000  00002000  2**2
                  ALLOC
 11 ._user_heap_stack 00000604  20000024  20000024  00002000  2**0
                  ALLOC
 12 .ARM.attributes 00000030  00000000  00000000  0000191c  2**0
                  CONTENTS, READONLY
 13 .debug_info   0000128b  00000000  00000000  0000194c  2**0
                  CONTENTS, READONLY, DEBUGGING, OCTETS
 14 .debug_abbrev 0000034b  00000000  00000000  00002bd7  2**0
                  CONTENTS, READONLY, DEBUGGING, OCTETS
 15 .debug_aranges 000001d8  00000000  00000000  00002f28  2**3
                  CONTENTS, READONLY, DEBUGGING, OCTETS
 16 .debug_rnglists 00000159  00000000  00000000  00003100  2**0
                  CONTENTS, READONLY, DEBUGGING, OCTETS
 17 .debug_macro  000151cd  00000000  00000000  00003259  2**0
                  CONTENTS, READONLY, DEBUGGING, OCTETS
 18 .debug_line   00000c78  00000000  00000000  00018426  2**0
                  CONTENTS, READONLY, DEBUGGING, OCTETS
 19 .debug_str    0007504d  00000000  00000000  0001909e  2**0
                  CONTENTS, READONLY, DEBUGGING, OCTETS
 20 .comment      00000043  00000000  00000000  0008e0eb  2**0
                  CONTENTS, READONLY
 21 .debug_frame  00000664  00000000  00000000  0008e130  2**2
                  CONTENTS, READONLY, DEBUGGING, OCTETS
 22 .debug_line_str 00000061  00000000  00000000  0008e794  2**0
                  CONTENTS, READONLY, DEBUGGING, OCTETS

Disassembly of section .text:

08000188 <__do_global_dtors_aux>:
 8000188:	b510      	push	{r4, lr}
 800018a:	4c05      	ldr	r4, [pc, #20]	@ (80001a0 <__do_global_dtors_aux+0x18>)
 800018c:	7823      	ldrb	r3, [r4, #0]
 800018e:	b933      	cbnz	r3, 800019e <__do_global_dtors_aux+0x16>
 8000190:	4b04      	ldr	r3, [pc, #16]	@ (80001a4 <__do_global_dtors_aux+0x1c>)
 8000192:	b113      	cbz	r3, 800019a <__do_global_dtors_aux+0x12>
 8000194:	4804      	ldr	r0, [pc, #16]	@ (80001a8 <__do_global_dtors_aux+0x20>)
 8000196:	f3af 8000 	nop.w
 800019a:	2301      	movs	r3, #1
 800019c:	7023      	strb	r3, [r4, #0]
 800019e:	bd10      	pop	{r4, pc}
 80001a0:	20000000 	.word	0x20000000
 80001a4:	00000000 	.word	0x00000000
 80001a8:	080008fc 	.word	0x080008fc

080001ac <frame_dummy>:
 80001ac:	b508      	push	{r3, lr}
 80001ae:	4b03      	ldr	r3, [pc, #12]	@ (80001bc <frame_dummy+0x10>)
 80001b0:	b11b      	cbz	r3, 80001ba <frame_dummy+0xe>
 80001b2:	4903      	ldr	r1, [pc, #12]	@ (80001c0 <frame_dummy+0x14>)
 80001b4:	4803      	ldr	r0, [pc, #12]	@ (80001c4 <frame_dummy+0x18>)
 80001b6:	f3af 8000 	nop.w
 80001ba:	bd08      	pop	{r3, pc}
 80001bc:	00000000 	.word	0x00000000
 80001c0:	20000004 	.word	0x20000004
 80001c4:	080008fc 	.word	0x080008fc

080001c8 <_Z5delayv>:
    	return PIN::button();
    }

};

void delay() {
 80001c8:	b480      	push	{r7}
 80001ca:	b083      	sub	sp, #12
 80001cc:	af00      	add	r7, sp, #0
    for (volatile uint32_t i = 0; i < 200000U; ++i) {
 80001ce:	2300      	movs	r3, #0
 80001d0:	607b      	str	r3, [r7, #4]
 80001d2:	e003      	b.n	80001dc <_Z5delayv+0x14>
        __asm volatile("nop");
 80001d4:	bf00      	nop
    for (volatile uint32_t i = 0; i < 200000U; ++i) {
 80001d6:	687b      	ldr	r3, [r7, #4]
 80001d8:	3301      	adds	r3, #1
 80001da:	607b      	str	r3, [r7, #4]
 80001dc:	687b      	ldr	r3, [r7, #4]
 80001de:	4a07      	ldr	r2, [pc, #28]	@ (80001fc <_Z5delayv+0x34>)
 80001e0:	4293      	cmp	r3, r2
 80001e2:	bf94      	ite	ls
 80001e4:	2301      	movls	r3, #1
 80001e6:	2300      	movhi	r3, #0
 80001e8:	b2db      	uxtb	r3, r3
 80001ea:	2b00      	cmp	r3, #0
 80001ec:	d1f2      	bne.n	80001d4 <_Z5delayv+0xc>
    }
}
 80001ee:	bf00      	nop
 80001f0:	bf00      	nop
 80001f2:	370c      	adds	r7, #12
 80001f4:	46bd      	mov	sp, r7
 80001f6:	f85d 7b04 	ldr.w	r7, [sp], #4
 80001fa:	4770      	bx	lr
 80001fc:	00030d3f 	.word	0x00030d3f

08000200 <main>:
using PD15 = GPIO_Pin<PortD,15>;
using PB5  = GPIO_Pin<PortB,5>;
using PC3  = GPIO_Pin<PortC,3>;
using PE4  = GPIO_Pin<PortE,4>;
using PA1=GPIO_Pin<PortA,1>;
int main() {
 8000200:	b580      	push	{r7, lr}
 8000202:	b086      	sub	sp, #24
 8000204:	af00      	add	r7, sp, #0
  LED<PD14,1> red;
 8000206:	f107 0314 	add.w	r3, r7, #20
 800020a:	4618      	mov	r0, r3
 800020c:	f000 f86b 	bl	80002e6 <_ZN3LEDI8GPIO_PinI9GPIO_PortILj1073875968EELh14EELb1EEC1Ev>
    LED<PD15,1> blue;
 8000210:	f107 0310 	add.w	r3, r7, #16
 8000214:	4618      	mov	r0, r3
 8000216:	f000 f871 	bl	80002fc <_ZN3LEDI8GPIO_PinI9GPIO_PortILj1073875968EELh15EELb1EEC1Ev>
    LED<PB5,1>  ext1;
 800021a:	f107 030c 	add.w	r3, r7, #12
 800021e:	4618      	mov	r0, r3
 8000220:	f000 f877 	bl	8000312 <_ZN3LEDI8GPIO_PinI9GPIO_PortILj1073873920EELh5EELb1EEC1Ev>
    LED<PC3,1>  ext2;
 8000224:	f107 0308 	add.w	r3, r7, #8
 8000228:	4618      	mov	r0, r3
 800022a:	f000 f87d 	bl	8000328 <_ZN3LEDI8GPIO_PinI9GPIO_PortILj1073874944EELh3EELb1EEC1Ev>
    LED<PE4,1>  ext3;
 800022e:	1d3b      	adds	r3, r7, #4
 8000230:	4618      	mov	r0, r3
 8000232:	f000 f884 	bl	800033e <_ZN3LEDI8GPIO_PinI9GPIO_PortILj1073876992EELh4EELb1EEC1Ev>
    LED<PA1,0> b;
 8000236:	463b      	mov	r3, r7
 8000238:	4618      	mov	r0, r3
 800023a:	f000 f88b 	bl	8000354 <_ZN3LEDI8GPIO_PinI9GPIO_PortILj1073872896EELh1EELb0EEC1Ev>
    while (true) {
    	if(b.read()==1){
 800023e:	463b      	mov	r3, r7
 8000240:	4618      	mov	r0, r3
 8000242:	f000 f892 	bl	800036a <_ZN3LEDI8GPIO_PinI9GPIO_PortILj1073872896EELh1EELb0EE4readEv>
 8000246:	4603      	mov	r3, r0
 8000248:	2b01      	cmp	r3, #1
 800024a:	bf0c      	ite	eq
 800024c:	2301      	moveq	r3, #1
 800024e:	2300      	movne	r3, #0
 8000250:	b2db      	uxtb	r3, r3
 8000252:	2b00      	cmp	r3, #0
 8000254:	d01e      	beq.n	8000294 <main+0x94>
    		red.off();
 8000256:	f107 0314 	add.w	r3, r7, #20
 800025a:	4618      	mov	r0, r3
 800025c:	f000 f890 	bl	8000380 <_ZN3LEDI8GPIO_PinI9GPIO_PortILj1073875968EELh14EELb1EE3offEv>
    		blue.off();
 8000260:	f107 0310 	add.w	r3, r7, #16
 8000264:	4618      	mov	r0, r3
 8000266:	f000 f895 	bl	8000394 <_ZN3LEDI8GPIO_PinI9GPIO_PortILj1073875968EELh15EELb1EE3offEv>
        ext1.toggle();
 800026a:	f107 030c 	add.w	r3, r7, #12
 800026e:	4618      	mov	r0, r3
 8000270:	f000 f89a 	bl	80003a8 <_ZN3LEDI8GPIO_PinI9GPIO_PortILj1073873920EELh5EELb1EE6toggleEv>
        delay();
 8000274:	f7ff ffa8 	bl	80001c8 <_Z5delayv>
        ext2.toggle();
 8000278:	f107 0308 	add.w	r3, r7, #8
 800027c:	4618      	mov	r0, r3
 800027e:	f000 f89d 	bl	80003bc <_ZN3LEDI8GPIO_PinI9GPIO_PortILj1073874944EELh3EELb1EE6toggleEv>
        delay();
 8000282:	f7ff ffa1 	bl	80001c8 <_Z5delayv>
        ext3.toggle();
 8000286:	1d3b      	adds	r3, r7, #4
 8000288:	4618      	mov	r0, r3
 800028a:	f000 f8a1 	bl	80003d0 <_ZN3LEDI8GPIO_PinI9GPIO_PortILj1073876992EELh4EELb1EE6toggleEv>
        delay();
 800028e:	f7ff ff9b 	bl	80001c8 <_Z5delayv>
 8000292:	e7d4      	b.n	800023e <main+0x3e>

    	}
    	else if(b.read()==0){
 8000294:	463b      	mov	r3, r7
 8000296:	4618      	mov	r0, r3
 8000298:	f000 f867 	bl	800036a <_ZN3LEDI8GPIO_PinI9GPIO_PortILj1073872896EELh1EELb0EE4readEv>
 800029c:	4603      	mov	r3, r0
 800029e:	2b00      	cmp	r3, #0
 80002a0:	bf0c      	ite	eq
 80002a2:	2301      	moveq	r3, #1
 80002a4:	2300      	movne	r3, #0
 80002a6:	b2db      	uxtb	r3, r3
 80002a8:	2b00      	cmp	r3, #0
 80002aa:	d0c8      	beq.n	800023e <main+0x3e>
    		 ext1.off();
 80002ac:	f107 030c 	add.w	r3, r7, #12
 80002b0:	4618      	mov	r0, r3
 80002b2:	f000 f897 	bl	80003e4 <_ZN3LEDI8GPIO_PinI9GPIO_PortILj1073873920EELh5EELb1EE3offEv>
    		 ext2.off();
 80002b6:	f107 0308 	add.w	r3, r7, #8
 80002ba:	4618      	mov	r0, r3
 80002bc:	f000 f89c 	bl	80003f8 <_ZN3LEDI8GPIO_PinI9GPIO_PortILj1073874944EELh3EELb1EE3offEv>
    		 ext3.off();
 80002c0:	1d3b      	adds	r3, r7, #4
 80002c2:	4618      	mov	r0, r3
 80002c4:	f000 f8a2 	bl	800040c <_ZN3LEDI8GPIO_PinI9GPIO_PortILj1073876992EELh4EELb1EE3offEv>
    	red.toggle();
 80002c8:	f107 0314 	add.w	r3, r7, #20
 80002cc:	4618      	mov	r0, r3
 80002ce:	f000 f8a7 	bl	8000420 <_ZN3LEDI8GPIO_PinI9GPIO_PortILj1073875968EELh14EELb1EE6toggleEv>
    	        delay();
 80002d2:	f7ff ff79 	bl	80001c8 <_Z5delayv>
    	        blue.toggle();
 80002d6:	f107 0310 	add.w	r3, r7, #16
 80002da:	4618      	mov	r0, r3
 80002dc:	f000 f8aa 	bl	8000434 <_ZN3LEDI8GPIO_PinI9GPIO_PortILj1073875968EELh15EELb1EE6toggleEv>
    	        delay();
 80002e0:	f7ff ff72 	bl	80001c8 <_Z5delayv>
    	if(b.read()==1){
 80002e4:	e7ab      	b.n	800023e <main+0x3e>

080002e6 <_ZN3LEDI8GPIO_PinI9GPIO_PortILj1073875968EELh14EELb1EEC1Ev>:
    LED(){
 80002e6:	b580      	push	{r7, lr}
 80002e8:	b082      	sub	sp, #8
 80002ea:	af00      	add	r7, sp, #0
 80002ec:	6078      	str	r0, [r7, #4]
    	PIN::set_output();
 80002ee:	f000 f8ab 	bl	8000448 <_ZN8GPIO_PinI9GPIO_PortILj1073875968EELh14EE10set_outputEv>
    }
 80002f2:	687b      	ldr	r3, [r7, #4]
 80002f4:	4618      	mov	r0, r3
 80002f6:	3708      	adds	r7, #8
 80002f8:	46bd      	mov	sp, r7
 80002fa:	bd80      	pop	{r7, pc}

080002fc <_ZN3LEDI8GPIO_PinI9GPIO_PortILj1073875968EELh15EELb1EEC1Ev>:
    LED(){
 80002fc:	b580      	push	{r7, lr}
 80002fe:	b082      	sub	sp, #8
 8000300:	af00      	add	r7, sp, #0
 8000302:	6078      	str	r0, [r7, #4]
    	PIN::set_output();
 8000304:	f000 f8b4 	bl	8000470 <_ZN8GPIO_PinI9GPIO_PortILj1073875968EELh15EE10set_outputEv>
    }
 8000308:	687b      	ldr	r3, [r7, #4]
 800030a:	4618      	mov	r0, r3
 800030c:	3708      	adds	r7, #8
 800030e:	46bd      	mov	sp, r7
 8000310:	bd80      	pop	{r7, pc}

08000312 <_ZN3LEDI8GPIO_PinI9GPIO_PortILj1073873920EELh5EELb1EEC1Ev>:
    LED(){
 8000312:	b580      	push	{r7, lr}
 8000314:	b082      	sub	sp, #8
 8000316:	af00      	add	r7, sp, #0
 8000318:	6078      	str	r0, [r7, #4]
    	PIN::set_output();
 800031a:	f000 f8bd 	bl	8000498 <_ZN8GPIO_PinI9GPIO_PortILj1073873920EELh5EE10set_outputEv>
    }
 800031e:	687b      	ldr	r3, [r7, #4]
 8000320:	4618      	mov	r0, r3
 8000322:	3708      	adds	r7, #8
 8000324:	46bd      	mov	sp, r7
 8000326:	bd80      	pop	{r7, pc}

08000328 <_ZN3LEDI8GPIO_PinI9GPIO_PortILj1073874944EELh3EELb1EEC1Ev>:
    LED(){
 8000328:	b580      	push	{r7, lr}
 800032a:	b082      	sub	sp, #8
 800032c:	af00      	add	r7, sp, #0
 800032e:	6078      	str	r0, [r7, #4]
    	PIN::set_output();
 8000330:	f000 f8c6 	bl	80004c0 <_ZN8GPIO_PinI9GPIO_PortILj1073874944EELh3EE10set_outputEv>
    }
 8000334:	687b      	ldr	r3, [r7, #4]
 8000336:	4618      	mov	r0, r3
 8000338:	3708      	adds	r7, #8
 800033a:	46bd      	mov	sp, r7
 800033c:	bd80      	pop	{r7, pc}

0800033e <_ZN3LEDI8GPIO_PinI9GPIO_PortILj1073876992EELh4EELb1EEC1Ev>:
    LED(){
 800033e:	b580      	push	{r7, lr}
 8000340:	b082      	sub	sp, #8
 8000342:	af00      	add	r7, sp, #0
 8000344:	6078      	str	r0, [r7, #4]
    	PIN::set_output();
 8000346:	f000 f8cf 	bl	80004e8 <_ZN8GPIO_PinI9GPIO_PortILj1073876992EELh4EE10set_outputEv>
    }
 800034a:	687b      	ldr	r3, [r7, #4]
 800034c:	4618      	mov	r0, r3
 800034e:	3708      	adds	r7, #8
 8000350:	46bd      	mov	sp, r7
 8000352:	bd80      	pop	{r7, pc}

08000354 <_ZN3LEDI8GPIO_PinI9GPIO_PortILj1073872896EELh1EELb0EEC1Ev>:
    LED(){
 8000354:	b580      	push	{r7, lr}
 8000356:	b082      	sub	sp, #8
 8000358:	af00      	add	r7, sp, #0
 800035a:	6078      	str	r0, [r7, #4]
    		PIN::set_input();
 800035c:	f000 f8d8 	bl	8000510 <_ZN8GPIO_PinI9GPIO_PortILj1073872896EELh1EE9set_inputEv>
    }
 8000360:	687b      	ldr	r3, [r7, #4]
 8000362:	4618      	mov	r0, r3
 8000364:	3708      	adds	r7, #8
 8000366:	46bd      	mov	sp, r7
 8000368:	bd80      	pop	{r7, pc}

0800036a <_ZN3LEDI8GPIO_PinI9GPIO_PortILj1073872896EELh1EELb0EE4readEv>:
    uint8_t read(){
 800036a:	b580      	push	{r7, lr}
 800036c:	b082      	sub	sp, #8
 800036e:	af00      	add	r7, sp, #0
 8000370:	6078      	str	r0, [r7, #4]
    	return PIN::button();
 8000372:	f000 f8da 	bl	800052a <_ZN8GPIO_PinI9GPIO_PortILj1073872896EELh1EE6buttonEv>
 8000376:	4603      	mov	r3, r0
    }
 8000378:	4618      	mov	r0, r3
 800037a:	3708      	adds	r7, #8
 800037c:	46bd      	mov	sp, r7
 800037e:	bd80      	pop	{r7, pc}

08000380 <_ZN3LEDI8GPIO_PinI9GPIO_PortILj1073875968EELh14EELb1EE3offEv>:
    void off(){
 8000380:	b580      	push	{r7, lr}
 8000382:	b082      	sub	sp, #8
 8000384:	af00      	add	r7, sp, #0
 8000386:	6078      	str	r0, [r7, #4]
    	PIN::reset();
 8000388:	f000 f8dc 	bl	8000544 <_ZN8GPIO_PinI9GPIO_PortILj1073875968EELh14EE5resetEv>
    }
 800038c:	bf00      	nop
 800038e:	3708      	adds	r7, #8
 8000390:	46bd      	mov	sp, r7
 8000392:	bd80      	pop	{r7, pc}

08000394 <_ZN3LEDI8GPIO_PinI9GPIO_PortILj1073875968EELh15EELb1EE3offEv>:
    void off(){
 8000394:	b580      	push	{r7, lr}
 8000396:	b082      	sub	sp, #8
 8000398:	af00      	add	r7, sp, #0
 800039a:	6078      	str	r0, [r7, #4]
    	PIN::reset();
 800039c:	f000 f8dc 	bl	8000558 <_ZN8GPIO_PinI9GPIO_PortILj1073875968EELh15EE5resetEv>
    }
 80003a0:	bf00      	nop
 80003a2:	3708      	adds	r7, #8
 80003a4:	46bd      	mov	sp, r7
 80003a6:	bd80      	pop	{r7, pc}

080003a8 <_ZN3LEDI8GPIO_PinI9GPIO_PortILj1073873920EELh5EELb1EE6toggleEv>:
    void toggle(){
 80003a8:	b580      	push	{r7, lr}
 80003aa:	b082      	sub	sp, #8
 80003ac:	af00      	add	r7, sp, #0
 80003ae:	6078      	str	r0, [r7, #4]
    	PIN::toggle();
 80003b0:	f000 f8dc 	bl	800056c <_ZN8GPIO_PinI9GPIO_PortILj1073873920EELh5EE6toggleEv>
    }
 80003b4:	bf00      	nop
 80003b6:	3708      	adds	r7, #8
 80003b8:	46bd      	mov	sp, r7
 80003ba:	bd80      	pop	{r7, pc}

080003bc <_ZN3LEDI8GPIO_PinI9GPIO_PortILj1073874944EELh3EELb1EE6toggleEv>:
    void toggle(){
 80003bc:	b580      	push	{r7, lr}
 80003be:	b082      	sub	sp, #8
 80003c0:	af00      	add	r7, sp, #0
 80003c2:	6078      	str	r0, [r7, #4]
    	PIN::toggle();
 80003c4:	f000 f8e8 	bl	8000598 <_ZN8GPIO_PinI9GPIO_PortILj1073874944EELh3EE6toggleEv>
    }
 80003c8:	bf00      	nop
 80003ca:	3708      	adds	r7, #8
 80003cc:	46bd      	mov	sp, r7
 80003ce:	bd80      	pop	{r7, pc}

080003d0 <_ZN3LEDI8GPIO_PinI9GPIO_PortILj1073876992EELh4EELb1EE6toggleEv>:
    void toggle(){
 80003d0:	b580      	push	{r7, lr}
 80003d2:	b082      	sub	sp, #8
 80003d4:	af00      	add	r7, sp, #0
 80003d6:	6078      	str	r0, [r7, #4]
    	PIN::toggle();
 80003d8:	f000 f8f4 	bl	80005c4 <_ZN8GPIO_PinI9GPIO_PortILj1073876992EELh4EE6toggleEv>
    }
 80003dc:	bf00      	nop
 80003de:	3708      	adds	r7, #8
 80003e0:	46bd      	mov	sp, r7
 80003e2:	bd80      	pop	{r7, pc}

080003e4 <_ZN3LEDI8GPIO_PinI9GPIO_PortILj1073873920EELh5EELb1EE3offEv>:
    void off(){
 80003e4:	b580      	push	{r7, lr}
 80003e6:	b082      	sub	sp, #8
 80003e8:	af00      	add	r7, sp, #0
 80003ea:	6078      	str	r0, [r7, #4]
    	PIN::reset();
 80003ec:	f000 f900 	bl	80005f0 <_ZN8GPIO_PinI9GPIO_PortILj1073873920EELh5EE5resetEv>
    }
 80003f0:	bf00      	nop
 80003f2:	3708      	adds	r7, #8
 80003f4:	46bd      	mov	sp, r7
 80003f6:	bd80      	pop	{r7, pc}

080003f8 <_ZN3LEDI8GPIO_PinI9GPIO_PortILj1073874944EELh3EELb1EE3offEv>:
    void off(){
 80003f8:	b580      	push	{r7, lr}
 80003fa:	b082      	sub	sp, #8
 80003fc:	af00      	add	r7, sp, #0
 80003fe:	6078      	str	r0, [r7, #4]
    	PIN::reset();
 8000400:	f000 f900 	bl	8000604 <_ZN8GPIO_PinI9GPIO_PortILj1073874944EELh3EE5resetEv>
    }
 8000404:	bf00      	nop
 8000406:	3708      	adds	r7, #8
 8000408:	46bd      	mov	sp, r7
 800040a:	bd80      	pop	{r7, pc}

0800040c <_ZN3LEDI8GPIO_PinI9GPIO_PortILj1073876992EELh4EELb1EE3offEv>:
    void off(){
 800040c:	b580      	push	{r7, lr}
 800040e:	b082      	sub	sp, #8
 8000410:	af00      	add	r7, sp, #0
 8000412:	6078      	str	r0, [r7, #4]
    	PIN::reset();
 8000414:	f000 f900 	bl	8000618 <_ZN8GPIO_PinI9GPIO_PortILj1073876992EELh4EE5resetEv>
    }
 8000418:	bf00      	nop
 800041a:	3708      	adds	r7, #8
 800041c:	46bd      	mov	sp, r7
 800041e:	bd80      	pop	{r7, pc}

08000420 <_ZN3LEDI8GPIO_PinI9GPIO_PortILj1073875968EELh14EELb1EE6toggleEv>:
    void toggle(){
 8000420:	b580      	push	{r7, lr}
 8000422:	b082      	sub	sp, #8
 8000424:	af00      	add	r7, sp, #0
 8000426:	6078      	str	r0, [r7, #4]
    	PIN::toggle();
 8000428:	f000 f900 	bl	800062c <_ZN8GPIO_PinI9GPIO_PortILj1073875968EELh14EE6toggleEv>
    }
 800042c:	bf00      	nop
 800042e:	3708      	adds	r7, #8
 8000430:	46bd      	mov	sp, r7
 8000432:	bd80      	pop	{r7, pc}

08000434 <_ZN3LEDI8GPIO_PinI9GPIO_PortILj1073875968EELh15EELb1EE6toggleEv>:
    void toggle(){
 8000434:	b580      	push	{r7, lr}
 8000436:	b082      	sub	sp, #8
 8000438:	af00      	add	r7, sp, #0
 800043a:	6078      	str	r0, [r7, #4]
    	PIN::toggle();
 800043c:	f000 f90c 	bl	8000658 <_ZN8GPIO_PinI9GPIO_PortILj1073875968EELh15EE6toggleEv>
    }
 8000440:	bf00      	nop
 8000442:	3708      	adds	r7, #8
 8000444:	46bd      	mov	sp, r7
 8000446:	bd80      	pop	{r7, pc}

08000448 <_ZN8GPIO_PinI9GPIO_PortILj1073875968EELh14EE10set_outputEv>:
    static void set_output() {
 8000448:	b580      	push	{r7, lr}
 800044a:	af00      	add	r7, sp, #0
        Port::enable_clock();
 800044c:	f000 f91a 	bl	8000684 <_ZN9GPIO_PortILj1073875968EE12enable_clockEv>
        Port::port()->MODER &= ~(3U << (PIN * 2U));
 8000450:	f000 f934 	bl	80006bc <_ZN9GPIO_PortILj1073875968EE4portEv>
 8000454:	4603      	mov	r3, r0
 8000456:	681a      	ldr	r2, [r3, #0]
 8000458:	f022 5240 	bic.w	r2, r2, #805306368	@ 0x30000000
 800045c:	601a      	str	r2, [r3, #0]
        Port::port()->MODER |=  (1U << (PIN * 2U));
 800045e:	f000 f92d 	bl	80006bc <_ZN9GPIO_PortILj1073875968EE4portEv>
 8000462:	4603      	mov	r3, r0
 8000464:	681a      	ldr	r2, [r3, #0]
 8000466:	f042 5280 	orr.w	r2, r2, #268435456	@ 0x10000000
 800046a:	601a      	str	r2, [r3, #0]
    }
 800046c:	bf00      	nop
 800046e:	bd80      	pop	{r7, pc}

08000470 <_ZN8GPIO_PinI9GPIO_PortILj1073875968EELh15EE10set_outputEv>:
    static void set_output() {
 8000470:	b580      	push	{r7, lr}
 8000472:	af00      	add	r7, sp, #0
        Port::enable_clock();
 8000474:	f000 f906 	bl	8000684 <_ZN9GPIO_PortILj1073875968EE12enable_clockEv>
        Port::port()->MODER &= ~(3U << (PIN * 2U));
 8000478:	f000 f920 	bl	80006bc <_ZN9GPIO_PortILj1073875968EE4portEv>
 800047c:	4603      	mov	r3, r0
 800047e:	681a      	ldr	r2, [r3, #0]
 8000480:	f022 4240 	bic.w	r2, r2, #3221225472	@ 0xc0000000
 8000484:	601a      	str	r2, [r3, #0]
        Port::port()->MODER |=  (1U << (PIN * 2U));
 8000486:	f000 f919 	bl	80006bc <_ZN9GPIO_PortILj1073875968EE4portEv>
 800048a:	4603      	mov	r3, r0
 800048c:	681a      	ldr	r2, [r3, #0]
 800048e:	f042 4280 	orr.w	r2, r2, #1073741824	@ 0x40000000
 8000492:	601a      	str	r2, [r3, #0]
    }
 8000494:	bf00      	nop
 8000496:	bd80      	pop	{r7, pc}

08000498 <_ZN8GPIO_PinI9GPIO_PortILj1073873920EELh5EE10set_outputEv>:
    static void set_output() {
 8000498:	b580      	push	{r7, lr}
 800049a:	af00      	add	r7, sp, #0
        Port::enable_clock();
 800049c:	f000 f918 	bl	80006d0 <_ZN9GPIO_PortILj1073873920EE12enable_clockEv>
        Port::port()->MODER &= ~(3U << (PIN * 2U));
 80004a0:	f000 f932 	bl	8000708 <_ZN9GPIO_PortILj1073873920EE4portEv>
 80004a4:	4603      	mov	r3, r0
 80004a6:	681a      	ldr	r2, [r3, #0]
 80004a8:	f422 6240 	bic.w	r2, r2, #3072	@ 0xc00
 80004ac:	601a      	str	r2, [r3, #0]
        Port::port()->MODER |=  (1U << (PIN * 2U));
 80004ae:	f000 f92b 	bl	8000708 <_ZN9GPIO_PortILj1073873920EE4portEv>
 80004b2:	4603      	mov	r3, r0
 80004b4:	681a      	ldr	r2, [r3, #0]
 80004b6:	f442 6280 	orr.w	r2, r2, #1024	@ 0x400
 80004ba:	601a      	str	r2, [r3, #0]
    }
 80004bc:	bf00      	nop
 80004be:	bd80      	pop	{r7, pc}

080004c0 <_ZN8GPIO_PinI9GPIO_PortILj1073874944EELh3EE10set_outputEv>:
    static void set_output() {
 80004c0:	b580      	push	{r7, lr}
 80004c2:	af00      	add	r7, sp, #0
        Port::enable_clock();
 80004c4:	f000 f92a 	bl	800071c <_ZN9GPIO_PortILj1073874944EE12enable_clockEv>
        Port::port()->MODER &= ~(3U << (PIN * 2U));
 80004c8:	f000 f944 	bl	8000754 <_ZN9GPIO_PortILj1073874944EE4portEv>
 80004cc:	4603      	mov	r3, r0
 80004ce:	681a      	ldr	r2, [r3, #0]
 80004d0:	f022 02c0 	bic.w	r2, r2, #192	@ 0xc0
 80004d4:	601a      	str	r2, [r3, #0]
        Port::port()->MODER |=  (1U << (PIN * 2U));
 80004d6:	f000 f93d 	bl	8000754 <_ZN9GPIO_PortILj1073874944EE4portEv>
 80004da:	4603      	mov	r3, r0
 80004dc:	681a      	ldr	r2, [r3, #0]
 80004de:	f042 0240 	orr.w	r2, r2, #64	@ 0x40
 80004e2:	601a      	str	r2, [r3, #0]
    }
 80004e4:	bf00      	nop
 80004e6:	bd80      	pop	{r7, pc}

080004e8 <_ZN8GPIO_PinI9GPIO_PortILj1073876992EELh4EE10set_outputEv>:
    static void set_output() {
 80004e8:	b580      	push	{r7, lr}
 80004ea:	af00      	add	r7, sp, #0
        Port::enable_clock();
 80004ec:	f000 f93c 	bl	8000768 <_ZN9GPIO_PortILj1073876992EE12enable_clockEv>
        Port::port()->MODER &= ~(3U << (PIN * 2U));
 80004f0:	f000 f956 	bl	80007a0 <_ZN9GPIO_PortILj1073876992EE4portEv>
 80004f4:	4603      	mov	r3, r0
 80004f6:	681a      	ldr	r2, [r3, #0]
 80004f8:	f422 7240 	bic.w	r2, r2, #768	@ 0x300
 80004fc:	601a      	str	r2, [r3, #0]
        Port::port()->MODER |=  (1U << (PIN * 2U));
 80004fe:	f000 f94f 	bl	80007a0 <_ZN9GPIO_PortILj1073876992EE4portEv>
 8000502:	4603      	mov	r3, r0
 8000504:	681a      	ldr	r2, [r3, #0]
 8000506:	f442 7280 	orr.w	r2, r2, #256	@ 0x100
 800050a:	601a      	str	r2, [r3, #0]
    }
 800050c:	bf00      	nop
 800050e:	bd80      	pop	{r7, pc}

08000510 <_ZN8GPIO_PinI9GPIO_PortILj1073872896EELh1EE9set_inputEv>:
    static void set_input() {
 8000510:	b580      	push	{r7, lr}
 8000512:	af00      	add	r7, sp, #0
        Port::enable_clock();
 8000514:	f000 f94e 	bl	80007b4 <_ZN9GPIO_PortILj1073872896EE12enable_clockEv>
        Port::port()->MODER &= ~(3U << (PIN * 2U)); // 00 = Input
 8000518:	f000 f968 	bl	80007ec <_ZN9GPIO_PortILj1073872896EE4portEv>
 800051c:	4603      	mov	r3, r0
 800051e:	681a      	ldr	r2, [r3, #0]
 8000520:	f022 020c 	bic.w	r2, r2, #12
 8000524:	601a      	str	r2, [r3, #0]
    }
 8000526:	bf00      	nop
 8000528:	bd80      	pop	{r7, pc}

0800052a <_ZN8GPIO_PinI9GPIO_PortILj1073872896EELh1EE6buttonEv>:
    static uint8_t button(){
 800052a:	b580      	push	{r7, lr}
 800052c:	af00      	add	r7, sp, #0
    	return (Port::port()->IDR>>PIN)&1;
 800052e:	f000 f95d 	bl	80007ec <_ZN9GPIO_PortILj1073872896EE4portEv>
 8000532:	4603      	mov	r3, r0
 8000534:	691b      	ldr	r3, [r3, #16]
 8000536:	085b      	lsrs	r3, r3, #1
 8000538:	b2db      	uxtb	r3, r3
 800053a:	f003 0301 	and.w	r3, r3, #1
 800053e:	b2db      	uxtb	r3, r3
    }
 8000540:	4618      	mov	r0, r3
 8000542:	bd80      	pop	{r7, pc}

08000544 <_ZN8GPIO_PinI9GPIO_PortILj1073875968EELh14EE5resetEv>:
    static void reset(){
 8000544:	b580      	push	{r7, lr}
 8000546:	af00      	add	r7, sp, #0
    	Port::port()->BSRR = (1U << (PIN + 16U));
 8000548:	f000 f8b8 	bl	80006bc <_ZN9GPIO_PortILj1073875968EE4portEv>
 800054c:	4603      	mov	r3, r0
 800054e:	f04f 4280 	mov.w	r2, #1073741824	@ 0x40000000
 8000552:	619a      	str	r2, [r3, #24]
    }
 8000554:	bf00      	nop
 8000556:	bd80      	pop	{r7, pc}

08000558 <_ZN8GPIO_PinI9GPIO_PortILj1073875968EELh15EE5resetEv>:
    static void reset(){
 8000558:	b580      	push	{r7, lr}
 800055a:	af00      	add	r7, sp, #0
    	Port::port()->BSRR = (1U << (PIN + 16U));
 800055c:	f000 f8ae 	bl	80006bc <_ZN9GPIO_PortILj1073875968EE4portEv>
 8000560:	4603      	mov	r3, r0
 8000562:	f04f 4200 	mov.w	r2, #2147483648	@ 0x80000000
 8000566:	619a      	str	r2, [r3, #24]
    }
 8000568:	bf00      	nop
 800056a:	bd80      	pop	{r7, pc}

0800056c <_ZN8GPIO_PinI9GPIO_PortILj1073873920EELh5EE6toggleEv>:
    static void toggle() {
 800056c:	b580      	push	{r7, lr}
 800056e:	af00      	add	r7, sp, #0
        if ((Port::port()->ODR >> PIN) & 1U){
 8000570:	f000 f8ca 	bl	8000708 <_ZN9GPIO_PortILj1073873920EE4portEv>
 8000574:	4603      	mov	r3, r0
 8000576:	695b      	ldr	r3, [r3, #20]
 8000578:	f003 0320 	and.w	r3, r3, #32
 800057c:	2b00      	cmp	r3, #0
 800057e:	bf14      	ite	ne
 8000580:	2301      	movne	r3, #1
 8000582:	2300      	moveq	r3, #0
 8000584:	b2db      	uxtb	r3, r3
 8000586:	2b00      	cmp	r3, #0
 8000588:	d002      	beq.n	8000590 <_ZN8GPIO_PinI9GPIO_PortILj1073873920EELh5EE6toggleEv+0x24>
        	reset();
 800058a:	f000 f831 	bl	80005f0 <_ZN8GPIO_PinI9GPIO_PortILj1073873920EELh5EE5resetEv>
    }
 800058e:	e001      	b.n	8000594 <_ZN8GPIO_PinI9GPIO_PortILj1073873920EELh5EE6toggleEv+0x28>
        	set();
 8000590:	f000 f936 	bl	8000800 <_ZN8GPIO_PinI9GPIO_PortILj1073873920EELh5EE3setEv>
    }
 8000594:	bf00      	nop
 8000596:	bd80      	pop	{r7, pc}

08000598 <_ZN8GPIO_PinI9GPIO_PortILj1073874944EELh3EE6toggleEv>:
    static void toggle() {
 8000598:	b580      	push	{r7, lr}
 800059a:	af00      	add	r7, sp, #0
        if ((Port::port()->ODR >> PIN) & 1U){
 800059c:	f000 f8da 	bl	8000754 <_ZN9GPIO_PortILj1073874944EE4portEv>
 80005a0:	4603      	mov	r3, r0
 80005a2:	695b      	ldr	r3, [r3, #20]
 80005a4:	f003 0308 	and.w	r3, r3, #8
 80005a8:	2b00      	cmp	r3, #0
 80005aa:	bf14      	ite	ne
 80005ac:	2301      	movne	r3, #1
 80005ae:	2300      	moveq	r3, #0
 80005b0:	b2db      	uxtb	r3, r3
 80005b2:	2b00      	cmp	r3, #0
 80005b4:	d002      	beq.n	80005bc <_ZN8GPIO_PinI9GPIO_PortILj1073874944EELh3EE6toggleEv+0x24>
        	reset();
 80005b6:	f000 f825 	bl	8000604 <_ZN8GPIO_PinI9GPIO_PortILj1073874944EELh3EE5resetEv>
    }
 80005ba:	e001      	b.n	80005c0 <_ZN8GPIO_PinI9GPIO_PortILj1073874944EELh3EE6toggleEv+0x28>
        	set();
 80005bc:	f000 f929 	bl	8000812 <_ZN8GPIO_PinI9GPIO_PortILj1073874944EELh3EE3setEv>
    }
 80005c0:	bf00      	nop
 80005c2:	bd80      	pop	{r7, pc}

080005c4 <_ZN8GPIO_PinI9GPIO_PortILj1073876992EELh4EE6toggleEv>:
    static void toggle() {
 80005c4:	b580      	push	{r7, lr}
 80005c6:	af00      	add	r7, sp, #0
        if ((Port::port()->ODR >> PIN) & 1U){
 80005c8:	f000 f8ea 	bl	80007a0 <_ZN9GPIO_PortILj1073876992EE4portEv>
 80005cc:	4603      	mov	r3, r0
 80005ce:	695b      	ldr	r3, [r3, #20]
 80005d0:	f003 0310 	and.w	r3, r3, #16
 80005d4:	2b00      	cmp	r3, #0
 80005d6:	bf14      	ite	ne
 80005d8:	2301      	movne	r3, #1
 80005da:	2300      	moveq	r3, #0
 80005dc:	b2db      	uxtb	r3, r3
 80005de:	2b00      	cmp	r3, #0
 80005e0:	d002      	beq.n	80005e8 <_ZN8GPIO_PinI9GPIO_PortILj1073876992EELh4EE6toggleEv+0x24>
        	reset();
 80005e2:	f000 f819 	bl	8000618 <_ZN8GPIO_PinI9GPIO_PortILj1073876992EELh4EE5resetEv>
    }
 80005e6:	e001      	b.n	80005ec <_ZN8GPIO_PinI9GPIO_PortILj1073876992EELh4EE6toggleEv+0x28>
        	set();
 80005e8:	f000 f91c 	bl	8000824 <_ZN8GPIO_PinI9GPIO_PortILj1073876992EELh4EE3setEv>
    }
 80005ec:	bf00      	nop
 80005ee:	bd80      	pop	{r7, pc}

080005f0 <_ZN8GPIO_PinI9GPIO_PortILj1073873920EELh5EE5resetEv>:
    static void reset(){
 80005f0:	b580      	push	{r7, lr}
 80005f2:	af00      	add	r7, sp, #0
    	Port::port()->BSRR = (1U << (PIN + 16U));
 80005f4:	f000 f888 	bl	8000708 <_ZN9GPIO_PortILj1073873920EE4portEv>
 80005f8:	4603      	mov	r3, r0
 80005fa:	f44f 1200 	mov.w	r2, #2097152	@ 0x200000
 80005fe:	619a      	str	r2, [r3, #24]
    }
 8000600:	bf00      	nop
 8000602:	bd80      	pop	{r7, pc}

08000604 <_ZN8GPIO_PinI9GPIO_PortILj1073874944EELh3EE5resetEv>:
    static void reset(){
 8000604:	b580      	push	{r7, lr}
 8000606:	af00      	add	r7, sp, #0
    	Port::port()->BSRR = (1U << (PIN + 16U));
 8000608:	f000 f8a4 	bl	8000754 <_ZN9GPIO_PortILj1073874944EE4portEv>
 800060c:	4603      	mov	r3, r0
 800060e:	f44f 2200 	mov.w	r2, #524288	@ 0x80000
 8000612:	619a      	str	r2, [r3, #24]
    }
 8000614:	bf00      	nop
 8000616:	bd80      	pop	{r7, pc}

08000618 <_ZN8GPIO_PinI9GPIO_PortILj1073876992EELh4EE5resetEv>:
    static void reset(){
 8000618:	b580      	push	{r7, lr}
 800061a:	af00      	add	r7, sp, #0
    	Port::port()->BSRR = (1U << (PIN + 16U));
 800061c:	f000 f8c0 	bl	80007a0 <_ZN9GPIO_PortILj1073876992EE4portEv>
 8000620:	4603      	mov	r3, r0
 8000622:	f44f 1280 	mov.w	r2, #1048576	@ 0x100000
 8000626:	619a      	str	r2, [r3, #24]
    }
 8000628:	bf00      	nop
 800062a:	bd80      	pop	{r7, pc}

0800062c <_ZN8GPIO_PinI9GPIO_PortILj1073875968EELh14EE6toggleEv>:
    static void toggle() {
 800062c:	b580      	push	{r7, lr}
 800062e:	af00      	add	r7, sp, #0
        if ((Port::port()->ODR >> PIN) & 1U){
 8000630:	f000 f844 	bl	80006bc <_ZN9GPIO_PortILj1073875968EE4portEv>
 8000634:	4603      	mov	r3, r0
 8000636:	695b      	ldr	r3, [r3, #20]
 8000638:	f403 4380 	and.w	r3, r3, #16384	@ 0x4000
 800063c:	2b00      	cmp	r3, #0
 800063e:	bf14      	ite	ne
 8000640:	2301      	movne	r3, #1
 8000642:	2300      	moveq	r3, #0
 8000644:	b2db      	uxtb	r3, r3
 8000646:	2b00      	cmp	r3, #0
 8000648:	d002      	beq.n	8000650 <_ZN8GPIO_PinI9GPIO_PortILj1073875968EELh14EE6toggleEv+0x24>
        	reset();
 800064a:	f7ff ff7b 	bl	8000544 <_ZN8GPIO_PinI9GPIO_PortILj1073875968EELh14EE5resetEv>
    }
 800064e:	e001      	b.n	8000654 <_ZN8GPIO_PinI9GPIO_PortILj1073875968EELh14EE6toggleEv+0x28>
        	set();
 8000650:	f000 f8f1 	bl	8000836 <_ZN8GPIO_PinI9GPIO_PortILj1073875968EELh14EE3setEv>
    }
 8000654:	bf00      	nop
 8000656:	bd80      	pop	{r7, pc}

08000658 <_ZN8GPIO_PinI9GPIO_PortILj1073875968EELh15EE6toggleEv>:
    static void toggle() {
 8000658:	b580      	push	{r7, lr}
 800065a:	af00      	add	r7, sp, #0
        if ((Port::port()->ODR >> PIN) & 1U){
 800065c:	f000 f82e 	bl	80006bc <_ZN9GPIO_PortILj1073875968EE4portEv>
 8000660:	4603      	mov	r3, r0
 8000662:	695b      	ldr	r3, [r3, #20]
 8000664:	f403 4300 	and.w	r3, r3, #32768	@ 0x8000
 8000668:	2b00      	cmp	r3, #0
 800066a:	bf14      	ite	ne
 800066c:	2301      	movne	r3, #1
 800066e:	2300      	moveq	r3, #0
 8000670:	b2db      	uxtb	r3, r3
 8000672:	2b00      	cmp	r3, #0
 8000674:	d002      	beq.n	800067c <_ZN8GPIO_PinI9GPIO_PortILj1073875968EELh15EE6toggleEv+0x24>
        	reset();
 8000676:	f7ff ff6f 	bl	8000558 <_ZN8GPIO_PinI9GPIO_PortILj1073875968EELh15EE5resetEv>
    }
 800067a:	e001      	b.n	8000680 <_ZN8GPIO_PinI9GPIO_PortILj1073875968EELh15EE6toggleEv+0x28>
        	set();
 800067c:	f000 f8e5 	bl	800084a <_ZN8GPIO_PinI9GPIO_PortILj1073875968EELh15EE3setEv>
    }
 8000680:	bf00      	nop
 8000682:	bd80      	pop	{r7, pc}

08000684 <_ZN9GPIO_PortILj1073875968EE12enable_clockEv>:
    static void enable_clock() {
 8000684:	b480      	push	{r7}
 8000686:	af00      	add	r7, sp, #0
        if (!enabled) {
 8000688:	4b0a      	ldr	r3, [pc, #40]	@ (80006b4 <_ZN9GPIO_PortILj1073875968EE12enable_clockEv+0x30>)
 800068a:	781b      	ldrb	r3, [r3, #0]
 800068c:	f083 0301 	eor.w	r3, r3, #1
 8000690:	b2db      	uxtb	r3, r3
 8000692:	2b00      	cmp	r3, #0
 8000694:	d008      	beq.n	80006a8 <_ZN9GPIO_PortILj1073875968EE12enable_clockEv+0x24>
            	RCC->AHB1ENR |= (1U << 3);
 8000696:	4b08      	ldr	r3, [pc, #32]	@ (80006b8 <_ZN9GPIO_PortILj1073875968EE12enable_clockEv+0x34>)
 8000698:	6b1b      	ldr	r3, [r3, #48]	@ 0x30
 800069a:	4a07      	ldr	r2, [pc, #28]	@ (80006b8 <_ZN9GPIO_PortILj1073875968EE12enable_clockEv+0x34>)
 800069c:	f043 0308 	orr.w	r3, r3, #8
 80006a0:	6313      	str	r3, [r2, #48]	@ 0x30
            enabled = true;
 80006a2:	4b04      	ldr	r3, [pc, #16]	@ (80006b4 <_ZN9GPIO_PortILj1073875968EE12enable_clockEv+0x30>)
 80006a4:	2201      	movs	r2, #1
 80006a6:	701a      	strb	r2, [r3, #0]
    }
 80006a8:	bf00      	nop
 80006aa:	46bd      	mov	sp, r7
 80006ac:	f85d 7b04 	ldr.w	r7, [sp], #4
 80006b0:	4770      	bx	lr
 80006b2:	bf00      	nop
 80006b4:	2000001c 	.word	0x2000001c
 80006b8:	40023800 	.word	0x40023800

080006bc <_ZN9GPIO_PortILj1073875968EE4portEv>:
    static GPIO_TypeDef* port() {
 80006bc:	b480      	push	{r7}
 80006be:	af00      	add	r7, sp, #0
        return reinterpret_cast<GPIO_TypeDef*>(BASE);
 80006c0:	4b02      	ldr	r3, [pc, #8]	@ (80006cc <_ZN9GPIO_PortILj1073875968EE4portEv+0x10>)
    }
 80006c2:	4618      	mov	r0, r3
 80006c4:	46bd      	mov	sp, r7
 80006c6:	f85d 7b04 	ldr.w	r7, [sp], #4
 80006ca:	4770      	bx	lr
 80006cc:	40020c00 	.word	0x40020c00

080006d0 <_ZN9GPIO_PortILj1073873920EE12enable_clockEv>:
    static void enable_clock() {
 80006d0:	b480      	push	{r7}
 80006d2:	af00      	add	r7, sp, #0
        if (!enabled) {
 80006d4:	4b0a      	ldr	r3, [pc, #40]	@ (8000700 <_ZN9GPIO_PortILj1073873920EE12enable_clockEv+0x30>)
 80006d6:	781b      	ldrb	r3, [r3, #0]
 80006d8:	f083 0301 	eor.w	r3, r3, #1
 80006dc:	b2db      	uxtb	r3, r3
 80006de:	2b00      	cmp	r3, #0
 80006e0:	d008      	beq.n	80006f4 <_ZN9GPIO_PortILj1073873920EE12enable_clockEv+0x24>
            	RCC->AHB1ENR |= (1U << 1);
 80006e2:	4b08      	ldr	r3, [pc, #32]	@ (8000704 <_ZN9GPIO_PortILj1073873920EE12enable_clockEv+0x34>)
 80006e4:	6b1b      	ldr	r3, [r3, #48]	@ 0x30
 80006e6:	4a07      	ldr	r2, [pc, #28]	@ (8000704 <_ZN9GPIO_PortILj1073873920EE12enable_clockEv+0x34>)
 80006e8:	f043 0302 	orr.w	r3, r3, #2
 80006ec:	6313      	str	r3, [r2, #48]	@ 0x30
            enabled = true;
 80006ee:	4b04      	ldr	r3, [pc, #16]	@ (8000700 <_ZN9GPIO_PortILj1073873920EE12enable_clockEv+0x30>)
 80006f0:	2201      	movs	r2, #1
 80006f2:	701a      	strb	r2, [r3, #0]
    }
 80006f4:	bf00      	nop
 80006f6:	46bd      	mov	sp, r7
 80006f8:	f85d 7b04 	ldr.w	r7, [sp], #4
 80006fc:	4770      	bx	lr
 80006fe:	bf00      	nop
 8000700:	2000001d 	.word	0x2000001d
 8000704:	40023800 	.word	0x40023800

08000708 <_ZN9GPIO_PortILj1073873920EE4portEv>:
    static GPIO_TypeDef* port() {
 8000708:	b480      	push	{r7}
 800070a:	af00      	add	r7, sp, #0
        return reinterpret_cast<GPIO_TypeDef*>(BASE);
 800070c:	4b02      	ldr	r3, [pc, #8]	@ (8000718 <_ZN9GPIO_PortILj1073873920EE4portEv+0x10>)
    }
 800070e:	4618      	mov	r0, r3
 8000710:	46bd      	mov	sp, r7
 8000712:	f85d 7b04 	ldr.w	r7, [sp], #4
 8000716:	4770      	bx	lr
 8000718:	40020400 	.word	0x40020400

0800071c <_ZN9GPIO_PortILj1073874944EE12enable_clockEv>:
    static void enable_clock() {
 800071c:	b480      	push	{r7}
 800071e:	af00      	add	r7, sp, #0
        if (!enabled) {
 8000720:	4b0a      	ldr	r3, [pc, #40]	@ (800074c <_ZN9GPIO_PortILj1073874944EE12enable_clockEv+0x30>)
 8000722:	781b      	ldrb	r3, [r3, #0]
 8000724:	f083 0301 	eor.w	r3, r3, #1
 8000728:	b2db      	uxtb	r3, r3
 800072a:	2b00      	cmp	r3, #0
 800072c:	d008      	beq.n	8000740 <_ZN9GPIO_PortILj1073874944EE12enable_clockEv+0x24>
            	RCC->AHB1ENR |= (1U << 2);
 800072e:	4b08      	ldr	r3, [pc, #32]	@ (8000750 <_ZN9GPIO_PortILj1073874944EE12enable_clockEv+0x34>)
 8000730:	6b1b      	ldr	r3, [r3, #48]	@ 0x30
 8000732:	4a07      	ldr	r2, [pc, #28]	@ (8000750 <_ZN9GPIO_PortILj1073874944EE12enable_clockEv+0x34>)
 8000734:	f043 0304 	orr.w	r3, r3, #4
 8000738:	6313      	str	r3, [r2, #48]	@ 0x30
            enabled = true;
 800073a:	4b04      	ldr	r3, [pc, #16]	@ (800074c <_ZN9GPIO_PortILj1073874944EE12enable_clockEv+0x30>)
 800073c:	2201      	movs	r2, #1
 800073e:	701a      	strb	r2, [r3, #0]
    }
 8000740:	bf00      	nop
 8000742:	46bd      	mov	sp, r7
 8000744:	f85d 7b04 	ldr.w	r7, [sp], #4
 8000748:	4770      	bx	lr
 800074a:	bf00      	nop
 800074c:	2000001e 	.word	0x2000001e
 8000750:	40023800 	.word	0x40023800

08000754 <_ZN9GPIO_PortILj1073874944EE4portEv>:
    static GPIO_TypeDef* port() {
 8000754:	b480      	push	{r7}
 8000756:	af00      	add	r7, sp, #0
        return reinterpret_cast<GPIO_TypeDef*>(BASE);
 8000758:	4b02      	ldr	r3, [pc, #8]	@ (8000764 <_ZN9GPIO_PortILj1073874944EE4portEv+0x10>)
    }
 800075a:	4618      	mov	r0, r3
 800075c:	46bd      	mov	sp, r7
 800075e:	f85d 7b04 	ldr.w	r7, [sp], #4
 8000762:	4770      	bx	lr
 8000764:	40020800 	.word	0x40020800

08000768 <_ZN9GPIO_PortILj1073876992EE12enable_clockEv>:
    static void enable_clock() {
 8000768:	b480      	push	{r7}
 800076a:	af00      	add	r7, sp, #0
        if (!enabled) {
 800076c:	4b0a      	ldr	r3, [pc, #40]	@ (8000798 <_ZN9GPIO_PortILj1073876992EE12enable_clockEv+0x30>)
 800076e:	781b      	ldrb	r3, [r3, #0]
 8000770:	f083 0301 	eor.w	r3, r3, #1
 8000774:	b2db      	uxtb	r3, r3
 8000776:	2b00      	cmp	r3, #0
 8000778:	d008      	beq.n	800078c <_ZN9GPIO_PortILj1073876992EE12enable_clockEv+0x24>
            	RCC->AHB1ENR |= (1U << 4);
 800077a:	4b08      	ldr	r3, [pc, #32]	@ (800079c <_ZN9GPIO_PortILj1073876992EE12enable_clockEv+0x34>)
 800077c:	6b1b      	ldr	r3, [r3, #48]	@ 0x30
 800077e:	4a07      	ldr	r2, [pc, #28]	@ (800079c <_ZN9GPIO_PortILj1073876992EE12enable_clockEv+0x34>)
 8000780:	f043 0310 	orr.w	r3, r3, #16
 8000784:	6313      	str	r3, [r2, #48]	@ 0x30
            enabled = true;
 8000786:	4b04      	ldr	r3, [pc, #16]	@ (8000798 <_ZN9GPIO_PortILj1073876992EE12enable_clockEv+0x30>)
 8000788:	2201      	movs	r2, #1
 800078a:	701a      	strb	r2, [r3, #0]
    }
 800078c:	bf00      	nop
 800078e:	46bd      	mov	sp, r7
 8000790:	f85d 7b04 	ldr.w	r7, [sp], #4
 8000794:	4770      	bx	lr
 8000796:	bf00      	nop
 8000798:	2000001f 	.word	0x2000001f
 800079c:	40023800 	.word	0x40023800

080007a0 <_ZN9GPIO_PortILj1073876992EE4portEv>:
    static GPIO_TypeDef* port() {
 80007a0:	b480      	push	{r7}
 80007a2:	af00      	add	r7, sp, #0
        return reinterpret_cast<GPIO_TypeDef*>(BASE);
 80007a4:	4b02      	ldr	r3, [pc, #8]	@ (80007b0 <_ZN9GPIO_PortILj1073876992EE4portEv+0x10>)
    }
 80007a6:	4618      	mov	r0, r3
 80007a8:	46bd      	mov	sp, r7
 80007aa:	f85d 7b04 	ldr.w	r7, [sp], #4
 80007ae:	4770      	bx	lr
 80007b0:	40021000 	.word	0x40021000

080007b4 <_ZN9GPIO_PortILj1073872896EE12enable_clockEv>:
    static void enable_clock() {
 80007b4:	b480      	push	{r7}
 80007b6:	af00      	add	r7, sp, #0
        if (!enabled) {
 80007b8:	4b0a      	ldr	r3, [pc, #40]	@ (80007e4 <_ZN9GPIO_PortILj1073872896EE12enable_clockEv+0x30>)
 80007ba:	781b      	ldrb	r3, [r3, #0]
 80007bc:	f083 0301 	eor.w	r3, r3, #1
 80007c0:	b2db      	uxtb	r3, r3
 80007c2:	2b00      	cmp	r3, #0
 80007c4:	d008      	beq.n	80007d8 <_ZN9GPIO_PortILj1073872896EE12enable_clockEv+0x24>
            	RCC->AHB1ENR |= (1U << 0);
 80007c6:	4b08      	ldr	r3, [pc, #32]	@ (80007e8 <_ZN9GPIO_PortILj1073872896EE12enable_clockEv+0x34>)
 80007c8:	6b1b      	ldr	r3, [r3, #48]	@ 0x30
 80007ca:	4a07      	ldr	r2, [pc, #28]	@ (80007e8 <_ZN9GPIO_PortILj1073872896EE12enable_clockEv+0x34>)
 80007cc:	f043 0301 	orr.w	r3, r3, #1
 80007d0:	6313      	str	r3, [r2, #48]	@ 0x30
            enabled = true;
 80007d2:	4b04      	ldr	r3, [pc, #16]	@ (80007e4 <_ZN9GPIO_PortILj1073872896EE12enable_clockEv+0x30>)
 80007d4:	2201      	movs	r2, #1
 80007d6:	701a      	strb	r2, [r3, #0]
    }
 80007d8:	bf00      	nop
 80007da:	46bd      	mov	sp, r7
 80007dc:	f85d 7b04 	ldr.w	r7, [sp], #4
 80007e0:	4770      	bx	lr
 80007e2:	bf00      	nop
 80007e4:	20000020 	.word	0x20000020
 80007e8:	40023800 	.word	0x40023800

080007ec <_ZN9GPIO_PortILj1073872896EE4portEv>:
    static GPIO_TypeDef* port() {
 80007ec:	b480      	push	{r7}
 80007ee:	af00      	add	r7, sp, #0
        return reinterpret_cast<GPIO_TypeDef*>(BASE);
 80007f0:	4b02      	ldr	r3, [pc, #8]	@ (80007fc <_ZN9GPIO_PortILj1073872896EE4portEv+0x10>)
    }
 80007f2:	4618      	mov	r0, r3
 80007f4:	46bd      	mov	sp, r7
 80007f6:	f85d 7b04 	ldr.w	r7, [sp], #4
 80007fa:	4770      	bx	lr
 80007fc:	40020000 	.word	0x40020000

08000800 <_ZN8GPIO_PinI9GPIO_PortILj1073873920EELh5EE3setEv>:
    static void set(){
 8000800:	b580      	push	{r7, lr}
 8000802:	af00      	add	r7, sp, #0
    	Port::port()->BSRR = (1U << PIN);
 8000804:	f7ff ff80 	bl	8000708 <_ZN9GPIO_PortILj1073873920EE4portEv>
 8000808:	4603      	mov	r3, r0
 800080a:	2220      	movs	r2, #32
 800080c:	619a      	str	r2, [r3, #24]
    }
 800080e:	bf00      	nop
 8000810:	bd80      	pop	{r7, pc}

08000812 <_ZN8GPIO_PinI9GPIO_PortILj1073874944EELh3EE3setEv>:
    static void set(){
 8000812:	b580      	push	{r7, lr}
 8000814:	af00      	add	r7, sp, #0
    	Port::port()->BSRR = (1U << PIN);
 8000816:	f7ff ff9d 	bl	8000754 <_ZN9GPIO_PortILj1073874944EE4portEv>
 800081a:	4603      	mov	r3, r0
 800081c:	2208      	movs	r2, #8
 800081e:	619a      	str	r2, [r3, #24]
    }
 8000820:	bf00      	nop
 8000822:	bd80      	pop	{r7, pc}

08000824 <_ZN8GPIO_PinI9GPIO_PortILj1073876992EELh4EE3setEv>:
    static void set(){
 8000824:	b580      	push	{r7, lr}
 8000826:	af00      	add	r7, sp, #0
    	Port::port()->BSRR = (1U << PIN);
 8000828:	f7ff ffba 	bl	80007a0 <_ZN9GPIO_PortILj1073876992EE4portEv>
 800082c:	4603      	mov	r3, r0
 800082e:	2210      	movs	r2, #16
 8000830:	619a      	str	r2, [r3, #24]
    }
 8000832:	bf00      	nop
 8000834:	bd80      	pop	{r7, pc}

08000836 <_ZN8GPIO_PinI9GPIO_PortILj1073875968EELh14EE3setEv>:
    static void set(){
 8000836:	b580      	push	{r7, lr}
 8000838:	af00      	add	r7, sp, #0
    	Port::port()->BSRR = (1U << PIN);
 800083a:	f7ff ff3f 	bl	80006bc <_ZN9GPIO_PortILj1073875968EE4portEv>
 800083e:	4603      	mov	r3, r0
 8000840:	f44f 4280 	mov.w	r2, #16384	@ 0x4000
 8000844:	619a      	str	r2, [r3, #24]
    }
 8000846:	bf00      	nop
 8000848:	bd80      	pop	{r7, pc}

0800084a <_ZN8GPIO_PinI9GPIO_PortILj1073875968EELh15EE3setEv>:
    static void set(){
 800084a:	b580      	push	{r7, lr}
 800084c:	af00      	add	r7, sp, #0
    	Port::port()->BSRR = (1U << PIN);
 800084e:	f7ff ff35 	bl	80006bc <_ZN9GPIO_PortILj1073875968EE4portEv>
 8000852:	4603      	mov	r3, r0
 8000854:	f44f 4200 	mov.w	r2, #32768	@ 0x8000
 8000858:	619a      	str	r2, [r3, #24]
    }
 800085a:	bf00      	nop
 800085c:	bd80      	pop	{r7, pc}
	...

08000860 <Reset_Handler>:

  .section .text.Reset_Handler
  .weak Reset_Handler
  .type Reset_Handler, %function
Reset_Handler:
  ldr   r0, =_estack
 8000860:	480d      	ldr	r0, [pc, #52]	@ (8000898 <LoopForever+0x2>)
  mov   sp, r0          /* set stack pointer */
 8000862:	4685      	mov	sp, r0
/* Call the clock system initialization function.*/
  bl  SystemInit
 8000864:	f3af 8000 	nop.w

/* Copy the data segment initializers from flash to SRAM */
  ldr r0, =_sdata
 8000868:	480c      	ldr	r0, [pc, #48]	@ (800089c <LoopForever+0x6>)
  ldr r1, =_edata
 800086a:	490d      	ldr	r1, [pc, #52]	@ (80008a0 <LoopForever+0xa>)
  ldr r2, =_sidata
 800086c:	4a0d      	ldr	r2, [pc, #52]	@ (80008a4 <LoopForever+0xe>)
  movs r3, #0
 800086e:	2300      	movs	r3, #0
  b LoopCopyDataInit
 8000870:	e002      	b.n	8000878 <LoopCopyDataInit>

08000872 <CopyDataInit>:

CopyDataInit:
  ldr r4, [r2, r3]
 8000872:	58d4      	ldr	r4, [r2, r3]
  str r4, [r0, r3]
 8000874:	50c4      	str	r4, [r0, r3]
  adds r3, r3, #4
 8000876:	3304      	adds	r3, #4

08000878 <LoopCopyDataInit>:

LoopCopyDataInit:
  adds r4, r0, r3
 8000878:	18c4      	adds	r4, r0, r3
  cmp r4, r1
 800087a:	428c      	cmp	r4, r1
  bcc CopyDataInit
 800087c:	d3f9      	bcc.n	8000872 <CopyDataInit>

/* Zero fill the bss segment. */
  ldr r2, =_sbss
 800087e:	4a0a      	ldr	r2, [pc, #40]	@ (80008a8 <LoopForever+0x12>)
  ldr r4, =_ebss
 8000880:	4c0a      	ldr	r4, [pc, #40]	@ (80008ac <LoopForever+0x16>)
  movs r3, #0
 8000882:	2300      	movs	r3, #0
  b LoopFillZerobss
 8000884:	e001      	b.n	800088a <LoopFillZerobss>

08000886 <FillZerobss>:

FillZerobss:
  str  r3, [r2]
 8000886:	6013      	str	r3, [r2, #0]
  adds r2, r2, #4
 8000888:	3204      	adds	r2, #4

0800088a <LoopFillZerobss>:

LoopFillZerobss:
  cmp r2, r4
 800088a:	42a2      	cmp	r2, r4
  bcc FillZerobss
 800088c:	d3fb      	bcc.n	8000886 <FillZerobss>


/* Call static constructors */
  bl __libc_init_array
 800088e:	f000 f811 	bl	80008b4 <__libc_init_array>
/* Call the application's entry point.*/

  bl main
 8000892:	f7ff fcb5 	bl	8000200 <main>

08000896 <LoopForever>:

LoopForever:
  b LoopForever
 8000896:	e7fe      	b.n	8000896 <LoopForever>
  ldr   r0, =_estack
 8000898:	20020000 	.word	0x20020000
  ldr r0, =_sdata
 800089c:	20000000 	.word	0x20000000
  ldr r1, =_edata
 80008a0:	20000000 	.word	0x20000000
  ldr r2, =_sidata
 80008a4:	0800091c 	.word	0x0800091c
  ldr r2, =_sbss
 80008a8:	20000000 	.word	0x20000000
  ldr r4, =_ebss
 80008ac:	20000024 	.word	0x20000024

080008b0 <ADC_IRQHandler>:
 * @retval : None
*/
  .section .text.Default_Handler,"ax",%progbits
Default_Handler:
Infinite_Loop:
  b Infinite_Loop
 80008b0:	e7fe      	b.n	80008b0 <ADC_IRQHandler>
	...

080008b4 <__libc_init_array>:
 80008b4:	b570      	push	{r4, r5, r6, lr}
 80008b6:	4b0d      	ldr	r3, [pc, #52]	@ (80008ec <__libc_init_array+0x38>)
 80008b8:	4d0d      	ldr	r5, [pc, #52]	@ (80008f0 <__libc_init_array+0x3c>)
 80008ba:	1b5b      	subs	r3, r3, r5
 80008bc:	109c      	asrs	r4, r3, #2
 80008be:	2600      	movs	r6, #0
 80008c0:	42a6      	cmp	r6, r4
 80008c2:	d109      	bne.n	80008d8 <__libc_init_array+0x24>
 80008c4:	f000 f81a 	bl	80008fc <_init>
 80008c8:	4d0a      	ldr	r5, [pc, #40]	@ (80008f4 <__libc_init_array+0x40>)
 80008ca:	4b0b      	ldr	r3, [pc, #44]	@ (80008f8 <__libc_init_array+0x44>)
 80008cc:	1b5b      	subs	r3, r3, r5
 80008ce:	109c      	asrs	r4, r3, #2
 80008d0:	2600      	movs	r6, #0
 80008d2:	42a6      	cmp	r6, r4
 80008d4:	d105      	bne.n	80008e2 <__libc_init_array+0x2e>
 80008d6:	bd70      	pop	{r4, r5, r6, pc}
 80008d8:	f855 3b04 	ldr.w	r3, [r5], #4
 80008dc:	4798      	blx	r3
 80008de:	3601      	adds	r6, #1
 80008e0:	e7ee      	b.n	80008c0 <__libc_init_array+0xc>
 80008e2:	f855 3b04 	ldr.w	r3, [r5], #4
 80008e6:	4798      	blx	r3
 80008e8:	3601      	adds	r6, #1
 80008ea:	e7f2      	b.n	80008d2 <__libc_init_array+0x1e>
 80008ec:	08000914 	.word	0x08000914
 80008f0:	08000914 	.word	0x08000914
 80008f4:	08000914 	.word	0x08000914
 80008f8:	08000918 	.word	0x08000918

080008fc <_init>:
 80008fc:	b5f8      	push	{r3, r4, r5, r6, r7, lr}
 80008fe:	bf00      	nop
 8000900:	bcf8      	pop	{r3, r4, r5, r6, r7}
 8000902:	bc08      	pop	{r3}
 8000904:	469e      	mov	lr, r3
 8000906:	4770      	bx	lr

08000908 <_fini>:
 8000908:	b5f8      	push	{r3, r4, r5, r6, r7, lr}
 800090a:	bf00      	nop
 800090c:	bcf8      	pop	{r3, r4, r5, r6, r7}
 800090e:	bc08      	pop	{r3}
 8000910:	469e      	mov	lr, r3
 8000912:	4770      	bx	lr
